ccopy_reg
_reconstructor
p1
(ctensorflow.contrib.learn.python.learn.preprocessing.text
VocabularyProcessor
p2
c__builtin__
object
p3
NtRp4
(dp5
S'vocabulary_'
p6
g1
(ctensorflow.contrib.learn.python.learn.preprocessing.categorical_vocabulary
CategoricalVocabulary
p7
g3
NtRp8
(dp9
S'_freeze'
p10
I01
sS'_unknown_token'
p11
S'<UNK>'
p12
sS'_support_reverse'
p13
I01
sS'_freq'
p14
ccollections
defaultdict
p15
(c__builtin__
int
p16
tRp17
S'Savage'
p18
I1
sS'Stuart'
p19
I1
sS'Varnish'
p20
I1
sS'earmarks'
p21
I1
sS'Does'
p22
I1
sS'controversial'
p23
I1
sS'aides'
p24
I1
sS'captain'
p25
I1
sS'hate'
p26
I2
sS"Apple's"
p27
I1
sS'Liverpool'
p28
I6
sS'Livingstone'
p29
I1
sS"China's"
p30
I1
sS'Watch'
p31
I5
sS"fog'"
p32
I1
sS'under'
p33
I2
sS"'Fate"
p34
I1
sS'Shoot'
p35
I1
sS'League'
p36
I2
sS'GP'
p37
I1
sS'Became'
p38
I1
sS'GB'
p39
I1
sS'much-loved'
p40
I1
sS'Suitors'
p41
I1
sS'school'
p42
I1
sS'Campaign'
p43
I2
sS'Premier'
p44
I1
sS'protest'
p45
I3
sS'math'
p46
I1
sS'Go'
p47
I1
sS'Paul'
p48
I2
sS'phones'
p49
I1
sS'warns'
p50
I1
sS'Christie'
p51
I1
sS"Warriors'"
p52
I1
sS'A'
I2
sS'Pathogen'
p53
I1
sS'even'
p54
I1
sS'Kaufman'
p55
I1
sS'thunder'
p56
I1
sS'Nafta'
p57
I1
sS'Game'
p58
I2
sS'Hamilton'
p59
I3
sS'new'
p60
I3
sS'ever'
p61
I2
sS'Needing'
p62
I1
sS'G6'
p63
I1
sS'join'
p64
I1
sS'never'
p65
I1
sS'Budget'
p66
I3
sS'hundreds'
p67
I1
sS'protection'
p68
I1
sS'Sidelined'
p69
I1
sS'100'
p70
I1
sS'Precise'
p71
I1
sS'ODI'
p72
I1
sS'kids'
p73
I2
sS'employees'
p74
I1
sS'controversy'
p75
I1
sS'Pushed'
p76
I1
sS'Qaeda'
p77
I1
sS'military'
p78
I1
sS'changes'
p79
I1
sS"'impressed'"
p80
I1
sS'Orleans'
p81
I1
sS'resurrected'
p82
I1
sS'campaign'
p83
I1
sS'Chaffetz'
p84
I1
sS'27-18'
p85
I2
sS'two-state'
p86
I1
sS'Three'
p87
I1
sS'patience'
p88
I1
sS'Health'
p89
I2
sS'Meet'
p90
I1
sS'Wales'
p91
I2
sS'Jen'
p92
I1
sS'plot'
p93
I1
sS"crash'"
p94
I1
sS'Usada'
p95
I1
sS'would'
p96
I1
sS'hospital'
p97
I1
sS'Removes'
p98
I1
sS'leaks'
p99
I3
sS'call'
p100
I1
sS'strike'
p101
I1
sS'Johanna'
p102
I1
sS'Brighton'
p103
I1
sS'-Cas9'
p104
I1
sS'brings'
p105
I2
sS'phone'
p106
I2
sS'Hacking'
p107
I1
sS'hold'
p108
I1
sS'must'
p109
I1
sS'me'
p110
I1
sS'1993'
p111
I1
sS'Financial'
p112
I1
sS'theories'
p113
I1
sS'my'
p114
I1
sS'addictive'
p115
I1
sS'Lie'
p116
I1
sS'Riverdale\xe2'
p117
I1
sS'Le'
p118
I2
sS'La'
p119
I5
sS'Lil'
p120
I1
sS'cited'
p121
I1
sS'waiting\xc2'
p122
I1
sS'LG'
p123
I2
sS'Benoit'
p124
I1
sS'Welsh'
p125
I2
sS'travel'
p126
I3
sS"'hold"
p127
I1
sS'Killing'
p128
I1
sS'how'
p129
I1
sS"He'll"
p130
I1
sS'Billion'
p131
I2
sS'mess'
p132
I1
sS'quits'
p133
I1
sS'after'
p134
I16
sS'Will'
p135
I2
sS'president'
p136
I1
sS'law'
p137
I1
sS'ex-wife'
p138
I1
sS'All'
p139
I1
sS'fewer'
p140
I1
sS'wins'
p141
I8
sS'Raith'
p142
I1
sS'Beyond'
p143
I1
sS'over'
p144
I4
sS'Kante'
p145
I1
sS'Pixel'
p146
I1
sS'bombing'
p147
I1
sS'His'
p148
I1
sS'highlights'
p149
I2
sS"'Nobody"
p150
I1
sS'Here'
p151
I1
sS'better'
p152
I1
sS'Judge'
p153
I1
sS'Him'
p154
I1
sS'Generals'
p155
I1
sS'at\xc2'
p156
I1
sS'Mobile'
p157
I1
sS'safe'
p158
I1
sS'Club'
p159
I1
sS'Omar'
p160
I2
sS'they'
p161
I1
sS'Argues'
p162
I1
sS'filling'
p163
I1
sS'each'
p164
I1
sS'Rovers'
p165
I2
sS'Dow'
p166
I1
sS'Hate'
p167
I1
sS'Gabbiadini'
p168
I2
sS'Transport'
p169
I1
sS'Millions'
p170
I1
sS'lifted'
p171
I1
sS'series'
p172
I1
sS'aide'
p173
I1
sS'Anyone'
p174
I1
sS'stealing'
p175
I1
sS'Musk'
p176
I1
sS'whining'
p177
I1
sS"Misbegotten'"
p178
I1
sS'ABook'
p179
I1
sS'Civilians'
p180
I1
sS'Super'
p181
I1
sS'Must'
p182
I1
sS'resume'
p183
I1
sS'Work'
p184
I1
sS'given'
p185
I1
sS'free'
p186
I2
sS'admits'
p187
I1
sS'Facts\xe2'
p188
I1
sS'struggle'
p189
I1
sS'W'
I1
sS'Tariffs'
p190
I1
sS'wanted'
p191
I1
sS'Soft'
p192
I1
sS'Nixon'
p193
I1
sS'Clinton'
p194
I1
sS'starts'
p195
I2
sS"go'"
p196
I1
sS'the\xc2'
p197
I1
sS'Driveway'
p198
I1
sS'1970s'
p199
I1
sS'Chair'
p200
I1
sS'daunting'
p201
I1
sS'Working'
p202
I1
sS'coding'
p203
I1
sS'Lunardi'
p204
I1
sS'Congress'
p205
I3
sS'top'
p206
I1
sS'Inflation'
p207
I1
sS"Off'"
p208
I1
sS'Press'
p209
I1
sS'murder'
p210
I1
sS'BBC'
p211
I7
sS"Puzder's"
p212
I3
sS'peril'
p213
I1
sS'roles'
p214
I1
sS'hike'
p215
I1
sS'tourists'
p216
I2
sS'Elected'
p217
I1
sS'Galaxy'
p218
I1
sS'sees'
p219
I1
sS'2-0'
p220
I2
sS'Mnuchin'
p221
I1
sS'tells'
p222
I1
sS'genuine'
p223
I1
sS"'Day"
p224
I1
sS'-'
I46
sS'Rate'
p225
I2
sS'Stoke'
p226
I1
sS'Bank'
p227
I4
sS'Jones'
p228
I2
sS'\xc2'
I2
sS'Reports'
p229
I1
sS'letter'
p230
I1
sS'Vision'
p231
I1
sS"It'll"
p232
I1
sS'Promises'
p233
I2
sS'treats'
p234
I1
sS'Lewis'
p235
I2
sS'Vauxhall'
p236
I1
sS'competitors'
p237
I1
sS'points'
p238
I2
sS'tech'
p239
I1
sS'Election'
p240
I1
sS'Filmmaking'
p241
I1
sS'voting'
p242
I1
sS'Its'
p243
I5
sS'saying'
p244
I1
sS'Ozobot'
p245
I1
sS'bomb'
p246
I1
sS'Union'
p247
I2
sS'Tapper'
p248
I1
sS'probe'
p249
I3
sS'ending'
p250
I1
sS'colors'
p251
I1
sS'radio'
p252
I1
sS'Marks'
p253
I1
sS'Here\xe2'
p254
I1
sS'Stance'
p255
I1
sS'Reaching'
p256
I1
sS'Big'
p257
I2
sS'Bid'
p258
I1
sS'Republicans'
p259
I3
sS'AWS'
p260
I1
sS'Amazon'
p261
I1
sS'Free'
p262
I2
sS'LIVE'
p263
I2
sS'glitz'
p264
I1
sS'do'
p265
I1
sS'Turns'
p266
I1
sS'watch'
p267
I2
sS'Days'
p268
I1
sS'hearings'
p269
I2
sS'despite'
p270
I1
sS'report'
p271
I1
sS'X'
I6
sS'Fingleton'
p272
I1
sS'Soviet'
p273
I1
sS"Durant's"
p274
I1
sS'Looms'
p275
I2
sS'new\xc2'
p276
I1
sS'Over'
p277
I2
sS'ban'
p278
I1
sS'Perez'
p279
I4
sS"Beast'"
p280
I1
sS'secretary'
p281
I2
sS"'SportsCenter'"
p282
I1
sS'testing'
p283
I3
sS'Pen'
p284
I2
sS'Short'
p285
I1
sS'result'
p286
I1
sS'Formula'
p287
I1
sS'John'
p288
I3
sS'Boost'
p289
I1
sS'best'
p290
I3
sS'said'
p291
I1
sS'draws'
p292
I2
sS'Supernatural\xe2'
p293
I1
sS'basics\xc2'
p294
I1
sS'score'
p295
I1
sS'discovers'
p296
I1
sS'Peugeot'
p297
I1
sS'Roundup'
p298
I2
sS'Ranieri'
p299
I4
sS'we'
p300
I1
sS'Central'
p301
I1
sS'vows'
p302
I1
sS'confusion'
p303
I1
sS'Fake'
p304
I1
sS'boss'
p305
I2
sS'Populism'
p306
I1
sS'Remain'
p307
I1
sS'news'
p308
I2
sS'uncertainty'
p309
I1
sS'against'
p310
I5
sS'Laura'
p311
I2
sS'Corbyn'
p312
I4
sS"leaders'"
p313
I1
sS'Navy'
p314
I2
sS'com'
p315
I1
sS'Closer'
p316
I1
sS'Spotify'
p317
I1
sS"Farah's"
p318
I1
sS'Ireland'
p319
I1
sS'spoke'
p320
I1
sS'trust'
p321
I1
sS'Gives'
p322
I1
sS'conference'
p323
I2
sS'basis'
p324
I1
sS'union'
p325
I1
sS'Southern'
p326
I1
sS'three'
p327
I2
sS'been'
p328
I2
sS'Bracketology'
p329
I1
sS'Chance'
p330
I1
sS"'complicated'"
p331
I1
sS'fake\xc2'
p332
I1
sS'Huawei\xe2'
p333
I1
sS'CN'
p334
I1
sS'Utd'
p335
I1
sS'attacked'
p336
I1
sS'Poland'
p337
I1
sS"administration'"
p338
I1
sS'Philadelphia'
p339
I1
sS'child'
p340
I1
sS'Cain'
p341
I3
sS'Secretary'
p342
I2
sS'Heinz'
p343
I1
sS'Rocket'
p344
I1
sS'launches'
p345
I2
sS'Dollar'
p346
I1
sS'Billions'
p347
I1
sS'aim'
p348
I1
sS'abrupt'
p349
I1
sS'Tuesday'
p350
I1
sS'launched'
p351
I1
sS'mistake'
p352
I2
sS'is'
p353
I14
sS'dumped'
p354
I1
sS'it'
p355
I3
sS'Bush'
p356
I1
sS'experts'
p357
I1
sS'in'
p358
I49
sS'Falling'
p359
I1
sS'Warriors'
p360
I1
sS'Tell'
p361
I1
sS'grown'
p362
I1
sS'patent'
p363
I1
sS'things'
p364
I1
sS'make'
p365
I1
sS'Ramps'
p366
I1
sS'President'
p367
I3
sS'several'
p368
I1
sS'raid'
p369
I1
sS'outspends'
p370
I1
sS'tops'
p371
I1
sS'Truck'
p372
I1
sS'Home'
p373
I2
sS'Air'
p374
I1
sS'Gates'
p375
I2
sS'kept'
p376
I1
sS'Leicester'
p377
I9
sS'Hydrogen'
p378
I1
sS'Gavin'
p379
I1
sS'on\xc2'
p380
I1
sS'mother'
p381
I1
sS'claims'
p382
I2
sS'the'
p383
I41
sS'800'
p384
I2
sS'Bobsleigh'
p385
I1
sS"doubts'"
p386
I1
sS'victim'
p387
I1
sS'Yemen'
p388
I1
sS'Oscar'
p389
I6
sS'assassination'
p390
I1
sS'Soundtrack'
p391
I1
sS'prison'
p392
I1
sS'News'
p393
I4
sS'Philip'
p394
I1
sS'Debt'
p395
I1
sS'Wilbur'
p396
I1
sS'James'
p397
I1
sS'breaks'
p398
I2
sS'Worth'
p399
I1
sS'apart'
p400
I1
sS'Lords'
p401
I1
sS'Trump'
p402
I61
sS'54'
p403
I1
sS'50'
p404
I1
sS'Claudio'
p405
I2
sS'Are'
p406
I4
sS'security'
p407
I3
sS'Pentagon'
p408
I3
sS'Warren'
p409
I2
sS"Utd's"
p410
I1
sS'right'
p411
I3
sS'crowd'
p412
I2
sS'people'
p413
I3
sS'sends'
p414
I1
sS'Hangouts'
p415
I1
sS'System'
p416
I1
sS'dead'
p417
I1
sS'Suspect'
p418
I1
sS'election'
p419
I3
sS'Off'
p420
I1
sS'harassment'
p421
I2
sS'contests'
p422
I1
sS'Motherwell'
p423
I1
sS'Lee'
p424
I1
sS'for'
p425
I35
sS"Jones'"
p426
I1
sS'Facebook'
p427
I2
sS'He'
p428
I2
sS'Casts'
p429
I1
sS'Gras'
p430
I1
sS'Unleash'
p431
I1
sS'memorable'
p432
I1
sS'First'
p433
I2
sS'attacks'
p434
I2
sS'accepts'
p435
I1
sS'undocumented'
p436
I1
sS'dinner'
p437
I3
sS'Pedestal'
p438
I1
sS'Still'
p439
I1
sS'Best'
p440
I4
sS'Fed'
p441
I2
sS'Cut'
p442
I2
sS'Cup'
p443
I8
sS'Scotland'
p444
I1
sS'son'
p445
I1
sS'raises'
p446
I2
sS'Provides'
p447
I1
sS'Schiff'
p448
I1
sS'ISIS'
p449
I1
sS'deal'
p450
I1
sS'Reported'
p451
I1
sS'support'
p452
I3
sS'Raid\xe2'
p453
I1
sS'fight'
p454
I2
sS'way'
p455
I1
sS'was'
p456
I3
sS'halls'
p457
I1
sS'launching'
p458
I1
sS'DNC'
p459
I2
sS'offer'
p460
I1
sS'Disability'
p461
I1
sS"'I'm"
p462
I1
sS"kiss'"
p463
I1
sS'Aramco'
p464
I1
sS'silliness'
p465
I1
sS'bids'
p466
I1
sS"Crooks'"
p467
I1
sS'County'
p468
I1
sS'Cotter'
p469
I1
sS'Engineering'
p470
I1
sS'lays'
p471
I1
sS'Vos'
p472
I1
sS'Tony'
p473
I2
sS'pricing'
p474
I1
sS'Sir'
p475
I1
sS'promises'
p476
I2
sS'Bullish'
p477
I1
sS'tournament'
p478
I2
sS'Surpasses'
p479
I1
sS'proves'
p480
I1
sS'Grumbling'
p481
I1
sS'trip'
p482
I1
sS'Begin'
p483
I1
sS'Handle'
p484
I1
sS'when'
p485
I1
sS'Andrew'
p486
I4
sS'actor'
p487
I3
sS'warms'
p488
I1
sS'Olga'
p489
I1
sS'test'
p490
I3
sS'Economy'
p491
I1
sS'picture'
p492
I3
sS"'s"
p493
I4
sS'dies'
p494
I11
sS'outage'
p495
I1
sS'Drive'
p496
I1
sS'scores'
p497
I1
sS'died'
p498
I1
sS'billion'
p499
I2
sS'Recuse'
p500
I1
sS'Pacquiao'
p501
I1
sS'Win'
p502
I2
sS'Corvey'
p503
I1
sS"Exxon's"
p504
I1
sS'Jess'
p505
I1
sS'premiums'
p506
I1
sS"'A"
p507
I1
sS'time'
p508
I1
sS'Times'
p509
I1
sS'coach'
p510
I1
sS'skip'
p511
I1
sS'Buffett'
p512
I4
sS'leads'
p513
I1
sS'manager'
p514
I1
sS'ice'
p515
I1
sS'Films'
p516
I1
sS'dismantling'
p517
I1
sS'Cowell'
p518
I1
sS'Columbia'
p519
I1
sS'essentials'
p520
I1
sS'Dan'
p521
I1
sS'Milestone'
p522
I1
sS'terror'
p523
I2
sS'Let'
p524
I1
sS'Hedge'
p525
I2
sS'Day'
p526
I4
sS'adviser'
p527
I3
sS"staffers'"
p528
I1
sS'Tech'
p529
I1
sS'anonymous'
p530
I1
sS'word'
p531
I1
sS'Where'
p532
I1
sS'swapping'
p533
I1
sS'Just'
p534
I1
sS'did'
p535
I1
sS'posts'
p536
I1
sS'accidentally'
p537
I1
sS'team'
p538
I2
sS'speculation'
p539
I1
sS'round'
p540
I1
sS'Kevin'
p541
I2
sS'Rey'
p542
I1
sS'says'
p543
I6
sS"'really"
p544
I1
sS'adulation'
p545
I1
sS'Shakespeare'
p546
I1
sS'Rich'
p547
I1
sS'chicken'
p548
I1
sS'Seeks'
p549
I3
sS'resurgence'
p550
I1
sS'Head'
p551
I1
sS'supporter'
p552
I2
sS'P10'
p553
I1
sS'Cruz'
p554
I1
sS'suspect'
p555
I1
sS'Independence'
p556
I1
sS'goes'
p557
I1
sS'international'
p558
I1
sS'boost'
p559
I1
sS'Bill'
p560
I6
sS"West'"
p561
I1
sS'Mc'
p562
I8
sS'Mo'
p563
I2
sS'Infrastructure'
p564
I1
sS'Bellew'
p565
I1
sS'groups'
p566
I1
sS'address'
p567
I2
sS"hadn't"
p568
I1
sS'stem'
p569
I1
sS'Changes'
p570
I1
sS'Sees'
p571
I1
sS"'Big'"
p572
I1
sS'guilty'
p573
I1
sS'Travis'
p574
I1
sS'MP'
p575
I1
sS'MS'
p576
I1
sS'Abdel'
p577
I1
sS'Inc'
p578
I1
sS'Justice'
p579
I1
sS"It's"
p580
I3
sS'retires'
p581
I1
sS'Jong'
p582
I2
sS'Alberto'
p583
I1
sS'crisis'
p584
I1
sS'Sanders'
p585
I3
sS"review'"
p586
I1
sS'troops'
p587
I1
sS'working'
p588
I1
sS'give'
p589
I2
sS'by'
p590
I8
sS'live'
p591
I4
sS'Awards'
p592
I1
sS'Bilden'
p593
I1
sS'scope'
p594
I1
sS'today'
p595
I1
sS"Nam's"
p596
I1
sS'Revamped'
p597
I1
sS'Ben'
p598
I2
sS'riot'
p599
I1
sS'These'
p600
I1
sS'Mount'
p601
I1
sS'Summary'
p602
I1
sS'Time'
p603
I1
sS's\xc2'
p604
I1
sS'fly'
p605
I2
sS'migrants'
p606
I2
sS"wrong'"
p607
I1
sS'Concise'
p608
I1
sS'avoiding'
p609
I1
sS'abortion'
p610
I1
sS'believes'
p611
I1
sS'Prix'
p612
I2
sS'recap'
p613
I4
sS'can'
p614
I1
sS'Liberation\xe2'
p615
I1
sS'Tells'
p616
I1
sS'staff-wide\xc2'
p617
I1
sS'claim'
p618
I1
sS'figure'
p619
I1
sS'hippo'
p620
I1
sS'Media'
p621
I1
sS'and\xc2'
p622
I2
sS'supremacy'
p623
I1
sS'Dutch'
p624
I1
sS'Britons'
p625
I1
sS'stole'
p626
I1
sS'Shows'
p627
I3
sS'mocks'
p628
I1
sS'winter'
p629
I1
sS'Who'
p630
I1
sS'1'
I3
sS'rallies'
p631
I1
sS'speaks'
p632
I1
sS'Why'
p633
I7
sS'economy'
p634
I1
sS'may'
p635
I3
sS'Always'
p636
I1
sS'spot'
p637
I1
sS'date'
p638
I1
sS'nomination'
p639
I2
sS'man'
p640
I1
sS'Series'
p641
I1
sS'Probe'
p642
I2
sS'Sources'
p643
I1
sS'Radio'
p644
I3
sS"no'"
p645
I1
sS'Brexit'
p646
I4
sS'feature'
p647
I1
sS'Earth\xe2'
p648
I1
sS'flagships'
p649
I2
sS'cuts'
p650
I1
sS'White'
p651
I8
sS'still'
p652
I1
sS'Direction'
p653
I1
sS'monitor'
p654
I1
sS"he's"
p655
I2
sS'window'
p656
I1
sS'RB'
p657
I1
sS'World'
p658
I5
sS'Hodgson'
p659
I1
sS'matches'
p660
I1
sS'Deutsche'
p661
I1
sS'nation'
p662
I1
sS'Alliance'
p663
I1
sS'not'
p664
I1
sS'killed'
p665
I2
sS'Executed'
p666
I1
sS"disabled'"
p667
I1
sS'OPEC'
p668
I1
sS'Skip'
p669
I1
sS'Wagner'
p670
I1
sS'Watches'
p671
I1
sS'Stanley'
p672
I1
sS'Paying'
p673
I1
sS'Live'
p674
I3
sS'year'
p675
I2
sS'Learned'
p676
I1
sS'Caroline'
p677
I1
sS'year\xe2'
p678
I1
sS'Carolina'
p679
I1
sS'Satellite'
p680
I1
sS'Added'
p681
I1
sS"'rigged'"
p682
I1
sS'space'
p683
I1
sS'irony'
p684
I1
sS"'test"
p685
I1
sS'Job'
p686
I1
sS'investigation'
p687
I2
sS'Joe'
p688
I1
sS'Key'
p689
I2
sS'shows'
p690
I1
sS'Commerce'
p691
I1
sS'Samsung'
p692
I5
sS'lawmaker'
p693
I1
sS'million'
p694
I2
sS'Judd'
p695
I1
sS'Pivots'
p696
I1
sS'government'
p697
I1
sS'rebel'
p698
I1
sS'fifth-round'
p699
I2
sS'Atletico'
p700
I1
sS'Security'
p701
I2
sS'care'
p702
I2
sS'Blind'
p703
I2
sS'Already'
p704
I1
sS'Battery'
p705
I1
sS'Nokia\xe2'
p706
I1
sS'thing'
p707
I1
sS'husband'
p708
I1
sS'Triple'
p709
I1
sS'Touch'
p710
I1
sS'Eric'
p711
I1
sS'first'
p712
I4
sS'Giant'
p713
I2
sS'one'
p714
I2
sS'Black'
p715
I1
sS'suspended'
p716
I1
sS'Harewood'
p717
I1
sS'Hollywood'
p718
I1
sS'lags'
p719
I1
sS'Raggett'
p720
I1
sS'little'
p721
I1
sS'Monday'
p722
I1
sS'Investigations'
p723
I1
sS'response'
p724
I1
sS'returns'
p725
I1
sS'2'
I4
sS'white'
p726
I1
sS'Repeal'
p727
I2
sS'1m'
p728
I1
sS'Response'
p729
I1
sS'friend'
p730
I2
sS'Knockoff'
p731
I1
sS'Subscribers'
p732
I1
sS'that'
p733
I2
sS'season'
p734
I1
sS"men's"
p735
I1
sS'Renewing'
p736
I1
sS'Won\xe2'
p737
I1
sS'than'
p738
I2
sS'Opts'
p739
I1
sS'10'
p740
I3
sS'13'
p741
I1
sS'14'
p742
I1
sS'27-year'
p743
I1
sS"Furious'"
p744
I1
sS'future'
p745
I1
sS'were'
p746
I1
sS'shakeup'
p747
I1
sS'and'
p748
I28
sS'turned'
p749
I1
sS'DC'
p750
I1
sS'Submit'
p751
I1
sS'say'
p752
I1
sS'conspiracy'
p753
I1
sS'Calm'
p754
I1
sS'sells'
p755
I1
sS'blunder'
p756
I1
sS'Shaun'
p757
I1
sS'Jewish'
p758
I1
sS'De'
p759
I1
sS'Richest'
p760
I1
sS'zoo'
p761
I1
sS'squad'
p762
I1
sS'switching'
p763
I1
sS'Democrats'
p764
I1
sS'Rugby'
p765
I2
sS'knew'
p766
I2
sS'Rallies'
p767
I1
sS'DHS'
p768
I1
sS'GOP'
p769
I4
sS"science'"
p770
I1
sS'Allegations'
p771
I1
sS"terrorism'"
p772
I1
sS'senior'
p773
I1
sS'Broncos'
p774
I1
sS'shot'
p775
I1
sS'show'
p776
I1
sS'allegations'
p777
I1
sS'infant'
p778
I1
sS'Stephen'
p779
I1
sS'one-frame'
p780
I1
sS'ground'
p781
I1
sS'Wants'
p782
I2
sS'We'
p783
I4
sS'Woman'
p784
I2
sS'title'
p785
I1
sS'behind'
p786
I1
sS'crime'
p787
I1
sS'only'
p788
I2
sS'going'
p789
I1
sS'black'
p790
I1
sS'dispute'
p791
I1
sS'Earth-like\xc2'
p792
I1
sS'get'
p793
I2
sS'Away\xe2'
p794
I1
sS'Large'
p795
I1
sS'Turn'
p796
I1
sS'killers'
p797
I1
sS"'unreal'"
p798
I1
sS'Amit'
p799
I1
sS'Amir'
p800
I1
sS'Republican'
p801
I2
sS'Champs'
p802
I1
sS'worried'
p803
I1
sS'Manchester'
p804
I2
sS"press'"
p805
I1
sS'vision'
p806
I1
sS'declared'
p807
I1
sS'next\xc2'
p808
I1
sS"France's"
p809
I1
sS"job'"
p810
I1
sS'press\xc2'
p811
I1
sS'college'
p812
I1
sS"'vulnerable'"
p813
I1
sS'Grand'
p814
I2
sS'Fares'
p815
I1
sS'fails'
p816
I1
sS'detect'
p817
I1
sS'federal'
p818
I1
sS'3'
I2
sS'Leeds'
p819
I1
sS'altercation'
p820
I1
sS'Told'
p821
I1
sS'Than'
p822
I1
sS'notice'
p823
I1
sS'Johnson'
p824
I1
sS'screen'
p825
I1
sS'killing'
p826
I1
sS'awards'
p827
I1
sS'Each'
p828
I1
sS'3310'
p829
I1
sS"'pending"
p830
I1
sS'Grounds'
p831
I1
sS'reaction'
p832
I1
sS'Post-Tillerson'
p833
I1
sS'rugby'
p834
I1
sS'Give'
p835
I1
sS'Kane'
p836
I1
sS'job'
p837
I2
sS'Malaysia'
p838
I1
sS's'
I13
sS'workplace'
p839
I1
sS"'Aliens"
p840
I1
sS'wheels'
p841
I1
sS"can't"
p842
I1
sS'deported'
p843
I1
sS"'The"
p844
I3
sS'among'
p845
I2
sS'Jeremy'
p846
I3
sS'provocation'
p847
I1
sS'cancer'
p848
I1
sS'Jose'
p849
I1
sS'Sachs'
p850
I1
sS'61'
p851
I2
sS'grants'
p852
I1
sS'comeback'
p853
I1
sS'Pledges'
p854
I1
sS"Liverpool's"
p855
I1
sS'come'
p856
I1
sS'Downgrades'
p857
I1
sS'absence'
p858
I1
sS'Paid'
p859
I1
sS'Tanks'
p860
I1
sS'500'
p861
I1
sS'wants'
p862
I3
sS'Six'
p863
I8
sS'Luring'
p864
I1
sS'Trump-Russia'
p865
I2
sS'dramatic'
p866
I1
sS'Halts'
p867
I1
sS'former'
p868
I1
sS'4-0'
p869
I1
sS'Tribe\xc2'
p870
I1
sS'Birmingham'
p871
I1
sS'sex'
p872
I2
sS"coup'"
p873
I1
sS'career'
p874
I1
sS'Potential'
p875
I1
sS'Marshals'
p876
I1
sS'I\xe2'
p877
I1
sS'Open'
p878
I1
sS'Disappear'
p879
I1
sS'Slow'
p880
I1
sS'Stokes'
p881
I1
sS'Tennis'
p882
I1
sS'Referendum'
p883
I1
sS"Netflix's"
p884
I1
sS'Better'
p885
I1
sS'Charge'
p886
I1
sS'life\xc2'
p887
I1
sS'rally'
p888
I3
sS'Israel'
p889
I1
sS'Plans'
p890
I2
sS'media'
p891
I3
sS'tour'
p892
I1
sS'inquiry'
p893
I2
sS'Blood'
p894
I1
sS'Disappointed'
p895
I1
sS'week'
p896
I2
sS'finish'
p897
I2
sS'Zuckerberg\xe2'
p898
I1
sS'I'
I2
sS'Rowing'
p899
I1
sS'Barcelona'
p900
I4
sS'companion'
p901
I1
sS'producers'
p902
I1
sS'IRA'
p903
I1
sS"been'"
p904
I1
sS'ID'
p905
I1
sS'Own'
p906
I1
sS'Says'
p907
I9
sS'charges'
p908
I1
sS'Is'
p909
I4
sS'TV'
p910
I4
sS'accountable'
p911
I1
sS'In'
p912
I7
sS'If'
p913
I2
sS'duty'
p914
I1
sS'United'
p915
I4
sS'Service'
p916
I1
sS'Ways'
p917
I1
sS'Ping'
p918
I1
sS'actions'
p919
I1
sS'Reduction'
p920
I1
sS'kill'
p921
I1
sS'touch'
p922
I1
sS'Markets'
p923
I3
sS'EPA'
p924
I2
sS'announcement'
p925
I2
sS'death'
p926
I3
sS'asthma'
p927
I1
sS"'undermines"
p928
I1
sS"we've"
p929
I1
sS'Malek'
p930
I1
sS'treatment'
p931
I1
sS'aborts'
p932
I1
sS'Jong-nam'
p933
I3
sS'Jaziri'
p934
I1
sS'around'
p935
I3
sS'rules'
p936
I2
sS'Uber\xe2'
p937
I2
sS'Monk'
p938
I1
sS'gonna'
p939
I1
sS'early'
p940
I2
sS'mom'
p941
I1
sS'vacuum'
p942
I1
sS'world'
p943
I1
sS'SVP'
p944
I1
sS'Shark'
p945
I1
sS'Bellingham'
p946
I1
sS'intel'
p947
I1
sS'facing'
p948
I1
sS'hails'
p949
I1
sS'benefit'
p950
I1
sS't'
I3
sS'Before'
p951
I2
sS'Democracy'
p952
I1
sS'West'
p953
I3
sS'Mark'
p954
I1
sS'New'
p955
I8
sS'Swansea'
p956
I1
sS'Things'
p957
I1
sS'Attorney'
p958
I2
sS'dimensions'
p959
I1
sS'Prosecutions'
p960
I1
sS'legal'
p961
I1
sS'moon'
p962
I2
sS"'football"
p963
I1
sS'critical'
p964
I1
sS'Term'
p965
I1
sS'Hamann'
p966
I1
sS'leadership'
p967
I1
sS'Paire'
p968
I1
sS'went'
p969
I1
sS'on'
p970
I36
sS'Fabregas'
p971
I1
sS'of'
p972
I37
sS"Project'"
p973
I1
sS'Trade'
p974
I2
sS'Wednesbury'
p975
I1
sS'stand'
p976
I2
sS'Draymond'
p977
I1
sS'or'
p978
I3
sS'organizers'
p979
I1
sS'quietly'
p980
I1
sS'No'
p981
I1
sS'Memories'
p982
I1
sS'La\xc2'
p983
I1
sS'watchdog'
p984
I1
sS'your'
p985
I1
sS'Week'
p986
I3
sS'her'
p987
I2
sS'Norma'
p988
I1
sS'Jamie'
p989
I1
sS'start'
p990
I1
sS'low'
p991
I1
sS'lot'
p992
I1
sS'Obama'
p993
I1
sS'J'
I1
sS"gladiators'"
p994
I1
sS'Error'
p995
I1
sS'clones'
p996
I1
sS'with'
p997
I11
sS'Guide'
p998
I1
sS'IICSA'
p999
I1
sS'hire'
p1000
I2
sS'Hales'
p1001
I1
sS'House'
p1002
I9
sS'Heseltine'
p1003
I1
sS'Foxes'
p1004
I2
sS'unveils'
p1005
I2
sS'Eddie'
p1006
I1
sS'Crisis'
p1007
I1
sS'Special'
p1008
I1
sS'Blow'
p1009
I1
sS'leaked'
p1010
I1
sS'Asks'
p1011
I1
sS'Space'
p1012
I7
sS'Gustavito'
p1013
I1
sS'al'
p1014
I1
sS'general'
p1015
I1
sS'How'
p1016
I4
sS'as'
p1017
I15
sS'reliability'
p1018
I1
sS'at'
p1019
I18
sS'planets'
p1020
I1
sS'enterprise-friendly'
p1021
I1
sS'politics'
p1022
I1
sS'pre-season'
p1023
I1
sS'Quavo'
p1024
I1
sS'Burnley'
p1025
I2
sS"Pimco's"
p1026
I1
sS'Lab'
p1027
I1
sS'Dark'
p1028
I1
sS'8-year-old'
p1029
I1
sS'Watson'
p1030
I2
sS'Teases'
p1031
I1
sS'5'
I8
sS'you'
p1032
I1
sS'Ross'
p1033
I1
sS'Tottenham'
p1034
I1
sS'Kurdish'
p1035
I1
sS'Great'
p1036
I1
sS'Suffers'
p1037
I1
sS'Alex'
p1038
I2
sS'parkour'
p1039
I1
sS'students'
p1040
I1
sS'Hoppers'
p1041
I1
sS'Village'
p1042
I1
sS'Literary'
p1043
I1
sS'coverage'
p1044
I1
sS'CNN'
p1045
I27
sS'building'
p1046
I1
sS'mourned'
p1047
I1
sS'Major'
p1048
I1
sS'Vardy'
p1049
I1
sS"Moonlight'"
p1050
I1
sS'invest'
p1051
I1
sS'3-1'
p1052
I3
sS'Street'
p1053
I2
sS"'I"
p1054
I1
sS'Year'
p1055
I1
sS'Harassment'
p1056
I1
sS'all'
p1057
I1
sS'Van'
p1058
I1
sS'skeleton'
p1059
I1
sS'ESPN'
p1060
I2
sS'Tube'
p1061
I2
sS'Obamacare'
p1062
I5
sS'Moon'
p1063
I2
sS'Take'
p1064
I1
sS'talks'
p1065
I2
sS'carpet'
p1066
I2
sS'Brown'
p1067
I1
sS'Elli'
p1068
I1
sS'Championship'
p1069
I1
sS'gymnast'
p1070
I1
sS'NCAA'
p1071
I1
sS'insulate'
p1072
I1
sS'to'
p1073
I82
sS'lawmakers'
p1074
I1
sS'Backlash'
p1075
I1
sS'case'
p1076
I2
sS'very'
p1077
I1
sS'worst'
p1078
I1
sS'condition'
p1079
I1
sS"Don't"
p1080
I2
sS'celebrity'
p1081
I1
sS'Retire'
p1082
I1
sS'list'
p1083
I2
sS'Tesla'
p1084
I3
sS'Kill'
p1085
I2
sS'Carpet'
p1086
I1
sS'Impact'
p1087
I1
sS'grabs'
p1088
I1
sS'Should'
p1089
I1
sS'Ferrell'
p1090
I1
sS"Trump's"
p1091
I9
sS'what'
p1092
I4
sS'Korea'
p1093
I2
sS'Sportsday'
p1094
I1
sS'Samsung\xe2'
p1095
I1
sS'ovarian'
p1096
I1
sS"'too"
p1097
I1
sS'version'
p1098
I1
sS'Worked'
p1099
I1
sS'public'
p1100
I2
sS'full'
p1101
I1
sS'Prosecutors'
p1102
I1
sS'Ahead'
p1103
I2
sS'Briefing'
p1104
I1
sS'praises'
p1105
I1
sS'Bluster'
p1106
I1
sS'Laren'
p1107
I1
sS"'most"
p1108
I1
sS'Limos'
p1109
I1
sS'ahead'
p1110
I1
sS"Shell's"
p1111
I1
sS'airport'
p1112
I1
sS'breakdown'
p1113
I1
sS'action'
p1114
I1
sS'Border'
p1115
I1
sS'options'
p1116
I1
sS'S8'
p1117
I2
sS'S3'
p1118
I1
sS"Theory'"
p1119
I1
sS'Top'
p1120
I2
sS'Watergate-style'
p1121
I1
sS'screens'
p1122
I1
sS'ask'
p1123
I1
sS'send'
p1124
I1
sS'toys'
p1125
I1
sS'Climb'
p1126
I1
sS'select'
p1127
I1
sS'takes'
p1128
I2
sS'prebuttal'
p1129
I1
sS'two'
p1130
I3
sS'Peak'
p1131
I1
sS'Geert'
p1132
I1
sS"People's"
p1133
I1
sS'Russian'
p1134
I3
sS'injury'
p1135
I1
sS'more'
p1136
I4
sS'Boeing'
p1137
I1
sS'Hails'
p1138
I1
sS'company'
p1139
I1
sS'Wyatt'
p1140
I1
sS'American'
p1141
I1
sS'Roger'
p1142
I1
sS'known'
p1143
I1
sS'town'
p1144
I1
sS'Looking'
p1145
I2
sS'Now'
p1146
I2
sS'vs'
p1147
I1
sS'v'
I5
sS'Wade'
p1148
I2
sS'Your'
p1149
I2
sS'history'
p1150
I1
sS'Conference'
p1151
I1
sS'shark'
p1152
I1
sS"'untrue'"
p1153
I1
sS'Chao'
p1154
I1
sS'Years'
p1155
I2
sS"agencies'"
p1156
I1
sS'needs'
p1157
I1
sS'Opening'
p1158
I1
sS'Bonus'
p1159
I2
sS'breaking'
p1160
I1
sS'reject'
p1161
I1
sS'before'
p1162
I1
sS'orchestrator'
p1163
I1
sS'Bankers'
p1164
I1
sS'Campaign-level'
p1165
I1
sS'tries'
p1166
I1
sS'CRISPR'
p1167
I1
sS'Kelly'
p1168
I3
sS'Syria'
p1169
I1
sS'Antarctic'
p1170
I1
sS'America\xe2'
p1171
I1
sS'a'
I27
sS'Mexico'
p1172
I1
sS'Brennan'
p1173
I1
sS'Sean'
p1174
I1
sS'pay'
p1175
I1
sS'dream'
p1176
I1
sS'Film'
p1177
I1
sS'chicks'
p1178
I1
sS'What'
p1179
I2
sS'People\xe2'
p1180
I1
sS"don't"
p1181
I1
sS'radar'
p1182
I1
sS'through'
p1183
I1
sS'committee'
p1184
I2
sS'Wilders'
p1185
I1
sS'its'
p1186
I2
sS'25'
p1187
I1
sS'27'
p1188
I1
sS'March'
p1189
I2
sS'21'
p1190
I1
sS'Stein'
p1191
I1
sS'late'
p1192
I1
sS'Kimi'
p1193
I1
sS'speech'
p1194
I3
sS'might'
p1195
I2
sS'alter'
p1196
I1
sS'Reaction'
p1197
I1
sS'return'
p1198
I1
sS'seeking'
p1199
I1
sS'propose'
p1200
I2
sS'Michael'
p1201
I2
sS'Worried'
p1202
I1
sS'framework'
p1203
I1
sS'foot'
p1204
I1
sS'Senior'
p1205
I1
sS'speculate'
p1206
I1
sS'bigger'
p1207
I1
sS'Pussycats'
p1208
I1
sS"'Islamofascism'"
p1209
I1
sS'always'
p1210
I1
sS'Aliens'
p1211
I1
sS'Potter'
p1212
I1
sS'IPO'
p1213
I3
sS'spy'
p1214
I1
sS'Council'
p1215
I1
sS'Scottish'
p1216
I1
sS"'renewal"
p1217
I1
sS'shocking'
p1218
I1
sS'Liam'
p1219
I1
sS"isn't"
p1220
I2
sS'status'
p1221
I1
sS'Co-Founders'
p1222
I1
sS'Tax'
p1223
I2
sS'Saints'
p1224
I2
sS'Joseph'
p1225
I1
sS'Surface'
p1226
I1
sS'Federer'
p1227
I1
sS"'Hundreds'"
p1228
I1
sS'More'
p1229
I4
sS'Lowest'
p1230
I1
sS'Picture'
p1231
I2
sS'dominates'
p1232
I1
sS'since'
p1233
I3
sS'publish'
p1234
I1
sS'health'
p1235
I2
sS'Israeli-Palestinian'
p1236
I1
sS'Report'
p1237
I1
sS"'scum'"
p1238
I1
sS"'must"
p1239
I1
sS'off-screen'
p1240
I1
sS'Ukraine'
p1241
I1
sS'timeline'
p1242
I1
sS'breathing\xc2'
p1243
I1
sS'Nine'
p1244
I1
sS'members'
p1245
I1
sS'EU'
p1246
I1
sS'Serious'
p1247
I1
sS'teach'
p1248
I1
sS'Male'
p1249
I1
sS'Lavrov'
p1250
I1
sS'El'
p1251
I1
sS'owners'
p1252
I1
sS'benefits'
p1253
I1
sS'service'
p1254
I1
sS'Evans'
p1255
I1
sS'People'
p1256
I3
sS'Boston'
p1257
I1
sS'modularity'
p1258
I1
sS'success'
p1259
I1
sS'George'
p1260
I1
sS'Past'
p1261
I1
sS'NASA'
p1262
I1
sS'Expect'
p1263
I1
sS'threat'
p1264
I1
sS'Elon'
p1265
I1
sS'fallen'
p1266
I1
sS'Dietmar'
p1267
I1
sS'Konta'
p1268
I1
sS'Goes'
p1269
I1
sS'Triggs-Hodge'
p1270
I1
sS'heads'
p1271
I1
sS'Cummings'
p1272
I1
sS'storm'
p1273
I1
sS'Everton'
p1274
I1
sS'selling'
p1275
I1
sS'Norkett'
p1276
I1
sS'Gamblers'
p1277
I1
sS'waterproofing'
p1278
I1
sS'defends'
p1279
I1
sS'Officials'
p1280
I1
sS'marriage'
p1281
I1
sS'2022'
p1282
I1
sS'motivation'
p1283
I1
sS'nominee'
p1284
I3
sS'Movie'
p1285
I1
sS'SEAL'
p1286
I2
sS'don\xe2'
p1287
I1
sS'WBC'
p1288
I1
sS'Forge'
p1289
I1
sS'aged'
p1290
I2
sS'Supporters'
p1291
I1
sS'Power'
p1292
I1
sS'Food'
p1293
I1
sS'officers'
p1294
I1
sS'lifts'
p1295
I1
sS'Germany'
p1296
I2
sS"plots'"
p1297
I1
sS'Kim'
p1298
I5
sS'Junkyard'
p1299
I1
sS'With'
p1300
I5
sS'Spirit'
p1301
I1
sS'Remix'
p1302
I1
sS"correspondents'"
p1303
I2
sS'Episode'
p1304
I2
sS'eggs'
p1305
I1
sS'measures'
p1306
I1
sS"'Meg'"
p1307
I1
sS'Optimism'
p1308
I1
sS'most'
p1309
I1
sS'Chief'
p1310
I1
sS'plan'
p1311
I2
sS'70'
p1312
I1
sS'Coptic'
p1313
I1
sS'The'
p1314
I14
sS'Called'
p1315
I1
sS'Restore'
p1316
I1
sS'Google'
p1317
I4
sS'mobile'
p1318
I1
sS'Alexis'
p1319
I1
sS'attacking'
p1320
I1
sS'Cloud'
p1321
I1
sS"'brain"
p1322
I1
sS'Tillerson'
p1323
I1
sS"'at"
p1324
I1
sS'Had'
p1325
I1
sS'session'
p1326
I1
sS'Hill'
p1327
I2
sS'Flintoff'
p1328
I1
sS'Has'
p1329
I2
sS'costing'
p1330
I1
sS'impact'
p1331
I1
sS'rocket'
p1332
I1
sS'Premiere'
p1333
I1
sS'Jr'
p1334
I1
sS'failed'
p1335
I1
sS'8'
I2
sS'Pool'
p1336
I1
sS'giants'
p1337
I1
sS'sacking'
p1338
I3
sS'his'
p1339
I1
sS'dominant'
p1340
I1
sS'Ex-boxer'
p1341
I2
sS'banned'
p1342
I1
sS'While'
p1343
I1
sS'fastest'
p1344
I2
sS'Paxton'
p1345
I3
sS'during'
p1346
I3
sS'Hotspur'
p1347
I1
sS"'very"
p1348
I1
sS'Olympic'
p1349
I2
sS'Help'
p1350
I1
sS"Pence's"
p1351
I1
sS"'did"
p1352
I1
sS'bird'
p1353
I1
sS'investigate'
p1354
I2
sS'spiked'
p1355
I1
sS'Craig'
p1356
I1
sS'Lions'
p1357
I1
sS'Equating'
p1358
I1
sS'set'
p1359
I3
sS'For'
p1360
I1
sS'achieved'
p1361
I1
sS'National'
p1362
I2
sS'startup'
p1363
I1
sS'Chaos'
p1364
I2
sS'France'
p1365
I2
sS'Auditions'
p1366
I1
sS'see'
p1367
I1
sS'are'
p1368
I6
sS'sea'
p1369
I1
sS'Correspondents'
p1370
I1
sS'Firms'
p1371
I1
sS'pictures'
p1372
I1
sS'Blair'
p1373
I1
sS'won'
p1374
I1
sS'Clones'
p1375
I1
sS'probably'
p1376
I1
sS"'real"
p1377
I1
sS'Age'
p1378
I3
sS'King'
p1379
I1
sS'Blackburn'
p1380
I1
sS'Moroccans'
p1381
I1
sS'Could'
p1382
I3
sS'Florida'
p1383
I2
sS'Departs'
p1384
I1
sS'Anew'
p1385
I1
sS'Tale'
p1386
I1
sS'Jobs'
p1387
I1
sS'Mardi'
p1388
I1
sS'league'
p1389
I1
sS'Unexpected'
p1390
I1
sS'Neil'
p1391
I1
sS'Hard'
p1392
I1
sS"Snap's"
p1393
I2
sS"spirit'"
p1394
I1
sS'became'
p1395
I1
sS'Voice\xe2'
p1396
I1
sS'Green'
p1397
I1
sS'Denies'
p1398
I2
sS'reasons'
p1399
I1
sS"'Twister'"
p1400
I1
sS'community'
p1401
I2
sS'Nobel'
p1402
I1
sS'Korbut'
p1403
I1
sS'agents'
p1404
I1
sS'Way'
p1405
I1
sS'000m'
p1406
I2
sS'suppressing'
p1407
I1
sS'War'
p1408
I1
sS'Shakes'
p1409
I2
sS'political'
p1410
I1
sS'due'
p1411
I1
sS'Difficulty'
p1412
I1
sS'Takeover'
p1413
I1
sS'California'
p1414
I1
sS'Plan'
p1415
I3
sS'meeting'
p1416
I1
sS'fret'
p1417
I1
sS'4'
I2
sS'cyclist'
p1418
I1
sS'nukes'
p1419
I1
sS'Allies'
p1420
I1
sS'1950s'
p1421
I1
sS'fire'
p1422
I1
sS'Newcastle'
p1423
I1
sS'Saudi'
p1424
I2
sS'Wolves'
p1425
I1
sS'Drops'
p1426
I1
sS'Commencement'
p1427
I1
sS'Old'
p1428
I1
sS'bill'
p1429
I2
sS'Reassure'
p1430
I1
sS'budget'
p1431
I3
sS'Snapchat'
p1432
I1
sS'Circling'
p1433
I1
sS'Cuts'
p1434
I2
sS'Market'
p1435
I2
sS'pack'
p1436
I1
sS'City'
p1437
I7
sS'Italy'
p1438
I4
sS'Threatens'
p1439
I2
sS'Nashville\xe2'
p1440
I1
sS'Strategy'
p1441
I1
sS"Holmes'"
p1442
I1
sS'Prison'
p1443
I1
sS'ready'
p1444
I1
sS'Millwall'
p1445
I2
sS'global\xc2'
p1446
I1
sS'Bipartisan'
p1447
I1
sS'FAS'
p1448
I1
sS'Jumps'
p1449
I1
sS'Programs'
p1450
I1
sS'Surface\xc2'
p1451
I1
sS'graves'
p1452
I1
sS'Rahman'
p1453
I1
sS'About'
p1454
I2
sS'used'
p1455
I1
sS'live\xe2'
p1456
I1
sS'Immigrants'
p1457
I1
sS'moment'
p1458
I2
sS'000'
p1459
I4
sS'uses'
p1460
I1
sS"'died'"
p1461
I1
sS'Flight'
p1462
I1
sS'Project'
p1463
I1
sS'task'
p1464
I1
sS'Almost'
p1465
I2
sS'Miller'
p1466
I1
sS'Goodlatte'
p1467
I1
sS'Migration'
p1468
I1
sS'Oscars'
p1469
I11
sS'Manny'
p1470
I1
sS'withdraw'
p1471
I1
sS'Talks'
p1472
I1
sS'Girl'
p1473
I1
sS'clearance'
p1474
I1
sS'ambassador'
p1475
I1
sS'Takes'
p1476
I2
sS'Breadwinner'
p1477
I1
sS'settlements'
p1478
I2
sS'Labor'
p1479
I1
sS'press'
p1480
I1
sS'openly'
p1481
I1
sS"We're"
p1482
I1
sS'questions'
p1483
I2
sS'startups'
p1484
I1
sS'gems'
p1485
I1
sS'cut'
p1486
I1
sS'cup'
p1487
I1
sS'advisers'
p1488
I1
sS'workers'
p1489
I1
sS'Nokia'
p1490
I1
sS"'rare'"
p1491
I1
sS'win'
p1492
I4
sS'Marine'
p1493
I1
sS'On'
p1494
I2
sS'Faster'
p1495
I1
sS'demands'
p1496
I1
sS'contacts'
p1497
I1
sS"homes'"
p1498
I1
sS'game'
p1499
I2
sS'Behavioral'
p1500
I1
sS'Russiagate'
p1501
I1
sS"Israel's"
p1502
I1
sS'Christian'
p1503
I1
sS'carers'
p1504
I1
sS"Helmets'"
p1505
I1
sS'Skeleton'
p1506
I1
sS'flub'
p1507
I1
sS'ignore'
p1508
I2
sS"complicated'"
p1509
I1
sS'Little'
p1510
I1
sS"Lockheed's"
p1511
I1
sS'parade'
p1512
I2
sS'some'
p1513
I2
sS'back'
p1514
I2
sS'MWC'
p1515
I2
sS'Mourinho'
p1516
I1
sS'Andy'
p1517
I2
sS'30m'
p1518
I1
sS'Academical'
p1519
I1
sS'Bannon'
p1520
I1
sS'Dame'
p1521
I1
sS'Seoul'
p1522
I1
sS'Haass'
p1523
I1
sS'decision'
p1524
I1
sS'Hindenburg'
p1525
I1
sS'epic'
p1526
I1
sS"Here's"
p1527
I1
sS'Something'
p1528
I2
sS'be'
p1529
I7
sS'jumps'
p1530
I1
sS'Economics'
p1531
I1
sS'David'
p1532
I3
sS'Stopping'
p1533
I1
sS'Russia'
p1534
I11
sS'Sanchez'
p1535
I1
sS'Taylor'
p1536
I1
sS'anything'
p1537
I1
sS'Roe'
p1538
I2
sS'range'
p1539
I1
sS'slams'
p1540
I1
sS"Won't"
p1541
I1
sS'Pong'
p1542
I1
sS'shiny'
p1543
I1
sS'Common'
p1544
I1
sS'Simon'
p1545
I1
sS'caretaker'
p1546
I1
sS'into'
p1547
I1
sS'Young'
p1548
I1
sS'Their'
p1549
I4
sS'Flights'
p1550
I1
sS'Speech'
p1551
I2
sS'spending'
p1552
I1
sS'Anthony'
p1553
I1
sS'Coverage'
p1554
I1
sS'Gerald'
p1555
I1
sS'forward'
p1556
I1
sS'Bond'
p1557
I1
sS'Fly'
p1558
I1
sS'Sutton'
p1559
I1
sS'0-0'
p1560
I1
sS'0-1'
p1561
I1
sS'immigration'
p1562
I1
sS'Raikkonen'
p1563
I1
sS'glamour'
p1564
I1
sS'\xe2'
I15
sS"miracle'"
p1565
I1
sS'ceremonies'
p1566
I1
sS'Office'
p1567
I1
sS'Jeff'
p1568
I2
sS'Twitter'
p1569
I1
sS'Indoor'
p1570
I1
sS'up'
p1571
I8
sS'Murray'
p1572
I2
sS'Offers'
p1573
I1
sS'prosecutor'
p1574
I2
sS'called'
p1575
I1
sS'36-15'
p1576
I1
sS'constant'
p1577
I1
sS'Ambitions'
p1578
I1
sS'Needed'
p1579
I1
sS'Attack'
p1580
I2
sS'warning'
p1581
I1
sS'Snap'
p1582
I1
sS'presides'
p1583
I1
sS"changes'"
p1584
I1
sS'rainbow'
p1585
I1
sS'Murder'
p1586
I1
sS'May'
p1587
I3
sS'peace'
p1588
I1
sS'fears'
p1589
I1
sS'backs'
p1590
I1
sS'club'
p1591
I1
sS'Wasted'
p1592
I1
sS'Dynamics\xe2'
p1593
I1
sS'Man'
p1594
I5
sS'Red'
p1595
I3
sS'mastermind'
p1596
I1
sS'Cash'
p1597
I1
sS'resign'
p1598
I1
sS'Moonlight'
p1599
I4
sS"soar'"
p1600
I1
sS'Derby'
p1601
I1
sS"Salvador's"
p1602
I1
sS'urged'
p1603
I1
sS'Confirms'
p1604
I1
sS'Uzi'
p1605
I1
sS'Tunisia'
p1606
I1
sS'As'
p1607
I1
sS'Scott'
p1608
I1
sS'2005'
p1609
I1
sS'far'
p1610
I1
sS"back'"
p1611
I1
sS'mix-up'
p1612
I3
sS'Sell'
p1613
I1
sS'Musk\xe2'
p1614
I1
sS'Ibrahimovic'
p1615
I2
sS'softer'
p1616
I1
sS'Department'
p1617
I2
sS'Bulls'
p1618
I1
sS'issues'
p1619
I2
sS'breached'
p1620
I1
sS'Netanyahu'
p1621
I3
sS'Not'
p1622
I3
sS'3\xe2'
p1623
I1
sS"'Go"
p1624
I1
sS'include'
p1625
I1
sS'meetings'
p1626
I2
sS'Albion'
p1627
I1
sS'P'
I1
sS'Risks'
p1628
I1
sS'Staking'
p1629
I1
sS'touchline'
p1630
I1
sS"help'"
p1631
I1
sS'Investors'
p1632
I1
sS'Brisbane'
p1633
I2
sS"Leicester'"
p1634
I1
sS'populist'
p1635
I1
sS'Defense'
p1636
I1
sS'Stings'
p1637
I1
sS'car'
p1638
I2
sS"Uber's"
p1639
I2
sS'ceasefire'
p1640
I1
sS'Theranos'
p1641
I1
sS'Spending'
p1642
I1
sS'flu'
p1643
I1
sS'Vehicle'
p1644
I1
sS'Tax-Reporting'
p1645
I1
sS'State'
p1646
I4
sS'video'
p1647
I2
sS'Organization'
p1648
I1
sS'concludes'
p1649
I1
sS'Brace'
p1650
I1
sS'honors'
p1651
I1
sS'Governors'
p1652
I2
sS'Hammond'
p1653
I1
sS'Galaxy\xc2'
p1654
I1
sS'cell'
p1655
I1
sS'Gestede'
p1656
I1
sS'Video'
p1657
I27
sS'Former'
p1658
I2
sS'Might'
p1659
I1
sS'Thrives'
p1660
I1
sS'led'
p1661
I1
sS'stance'
p1662
I1
sS'Startup'
p1663
I2
sS'Wrap'
p1664
I1
sS'poverty'
p1665
I1
sS'Commonwealth'
p1666
I1
sS'Chinese'
p1667
I2
sS'Energy'
p1668
I1
sS'30'
p1669
I1
sS'Back'
p1670
I1
sS'Fortunes'
p1671
I1
sS'Vietnam'
p1672
I1
sS'Out'
p1673
I2
sS'streaming\xc2'
p1674
I1
sS'addresses'
p1675
I1
sS'Doctor'
p1676
I1
sS"'get"
p1677
I1
sS'app'
p1678
I1
sS'Farah'
p1679
I1
sS'private'
p1680
I1
sS'FA'
p1681
I7
sS'Hove'
p1682
I1
sS'from'
p1683
I5
sS'Ernie'
p1684
I1
sS'Attend'
p1685
I1
sS'Driver'
p1686
I1
sS'NATO'
p1687
I1
sS'cheeky'
p1688
I1
sS'Land'
p1689
I3
sS'started'
p1690
I1
sS'baby'
p1691
I1
sS'Guy'
p1692
I2
sS'women'
p1693
I1
sS'customer'
p1694
I1
sS'F1'
p1695
I2
sS'account'
p1696
I1
sS'this'
p1697
I2
sS'challenge'
p1698
I1
sS"unfairly'"
p1699
I1
sS'meet'
p1700
I1
sS'process'
p1701
I2
sS'high'
p1702
I1
sS"'set"
p1703
I1
sS'Policy'
p1704
I1
sS'Party'
p1705
I1
sS"'ready"
p1706
I1
sS'democracy'
p1707
I1
sS"'Beauty"
p1708
I1
sS'Warrington'
p1709
I2
sS'winners'
p1710
I2
sS'unites'
p1711
I1
sS'Trump\xe2'
p1712
I1
sS'UK'
p1713
I2
sS'attend'
p1714
I1
sS'British'
p1715
I2
sS'abuse'
p1716
I4
sS'ethnic'
p1717
I1
sS'Donnell'
p1718
I2
sS'Uber'
p1719
I3
sS'Politico'
p1720
I1
sS"'determined"
p1721
I1
sS'didn\xe2'
p1722
I1
sS'robot'
p1723
I1
sS'One'
p1724
I1
sS'Blackpool'
p1725
I1
sS'Reputation'
p1726
I1
sS'Tablets'
p1727
I1
sS'six-year'
p1728
I1
sS'become\xc2'
p1729
I1
sS'Ginsburg'
p1730
I1
sS'move'
p1731
I1
sS"king's"
p1732
I1
sS'looks'
p1733
I1
sS'Hearts'
p1734
I1
sS'Orbiting'
p1735
I1
sS'Match'
p1736
I2
sS'Ayr'
p1737
I1
sS"'strongly"
p1738
I1
sS"'cash"
p1739
I1
sS'Paperwork'
p1740
I1
sS'exclusion'
p1741
I1
sS'll'
p1742
I1
sS'nostalgia'
p1743
I1
sS'labor'
p1744
I1
sS'Director'
p1745
I1
sS'Championships'
p1746
I3
sS'2018'
p1747
I4
sS'2017'
p1748
I19
sS'2016'
p1749
I4
sS'dad'
p1750
I1
sS'Dubai'
p1751
I5
sS'crash'
p1752
I2
sS'Car'
p1753
I1
sS'Hungry'
p1754
I1
sS'Preside'
p1755
I1
sS'Can'
p1756
I2
sS'day'
p1757
I4
sS'presidential'
p1758
I1
sS'Summer'
p1759
I1
sS'bills'
p1760
I1
sS'Weekly'
p1761
I3
sS'From'
p1762
I2
sS'doing'
p1763
I2
sS'Next'
p1764
I3
sS'80'
p1765
I2
sS'sexual'
p1766
I2
sS'special'
p1767
I2
sS'out'
p1768
I2
sS"Ferrari's"
p1769
I1
sS'Vert'
p1770
I1
sS"'"
I4
sS'CEO'
p1771
I3
sS'Heir'
p1772
I1
sS"nationalism'"
p1773
I1
sS'China'
p1774
I4
sS'Nearly'
p1775
I1
sS'Trying'
p1776
I1
sS'supports'
p1777
I1
sS'red'
p1778
I2
sS'Vern'
p1779
I1
sS'disclose'
p1780
I2
sS'cricketer'
p1781
I1
sS'This'
p1782
I4
sS'transfer'
p1783
I1
sS'Surge'
p1784
I1
sS'Perks'
p1785
I1
sS'Ryan'
p1786
I3
sS'A4109'
p1787
I1
sS'Senator'
p1788
I1
sS'Spend'
p1789
I2
sS'allies'
p1790
I1
sS'Durban'
p1791
I1
sS'Point'
p1792
I1
sS'Madrid'
p1793
I1
sS'could'
p1794
I2
sS'times'
p1795
I1
sS'Drone'
p1796
I1
sS'Aides'
p1797
I1
sS'Superbugs'
p1798
I1
sS"'soft"
p1799
I1
sS'there'
p1800
I1
sS'roadshow\xc2'
p1801
I1
sS'apps'
p1802
I1
sS'Review'
p1803
I1
sS"Paxton's"
p1804
I1
sS'reaches'
p1805
I1
sS"Italy's"
p1806
I1
sS'prank'
p1807
I2
sS'Boris'
p1808
I1
sS'has'
p1809
I1
sS'North'
p1810
I2
sS'Eastern'
p1811
I1
sS'Shane'
p1812
I1
sS'Funds'
p1813
I2
sS'Chokes'
p1814
I1
sS'their'
p1815
I2
sS'attack'
p1816
I2
sS'Last-Minute'
p1817
I1
sS'declines'
p1818
I1
sS"Scotland's"
p1819
I1
sS'Stocks'
p1820
I2
sS'Vargas'
p1821
I1
sS'final'
p1822
I3
sS'2-2'
p1823
I1
sS'Lincoln'
p1824
I3
sS'Fox'
p1825
I1
sS'nobody'
p1826
I1
sS'Democratic'
p1827
I2
sS'Bolton'
p1828
I1
sS'Pound'
p1829
I1
sS'Siri'
p1830
I1
sS'compensation'
p1831
I1
sS'Diverse'
p1832
I1
sS'loves'
p1833
I1
sS'Psaki'
p1834
I1
sS"Facebook's"
p1835
I1
sS'Inquest'
p1836
I1
sS'recuse'
p1837
I1
sS'Richard'
p1838
I1
sS'have'
p1839
I3
sS'need'
p1840
I1
sS'border'
p1841
I1
sS'preps'
p1842
I1
sS'Spat'
p1843
I1
sS'Independent'
p1844
I1
sS"'Moonlight'"
p1845
I2
sS'Goldman'
p1846
I3
sS'After'
p1847
I5
sS'battles'
p1848
I1
sS'mix'
p1849
I1
sS'demolished'
p1850
I1
sS'so'
p1851
I1
sS'medals'
p1852
I1
sS'savages'
p1853
I1
sS'agenda'
p1854
I1
sS'who'
p1855
I1
sS'Titanic'
p1856
I1
sS'Without'
p1857
I2
sS'Games'
p1858
I1
sS'Mercedes'
p1859
I1
sS"'radical"
p1860
I1
sS'Lock'
p1861
I1
sS'Some'
p1862
I1
sS'face'
p1863
I2
sS'Donald'
p1864
I3
sS'Growth'
p1865
I1
sS'USC'
p1866
I1
sS'away'
p1867
I1
sS'Dem'
p1868
I1
sS'text'
p1869
I1
sS'bring'
p1870
I1
sS'Under'
p1871
I1
sS'rough'
p1872
I1
sS'feat'
p1873
I1
sS'debate'
p1874
I1
sS'decade'
p1875
I1
sS'staff'
p1876
I1
sS'Thrones'
p1877
I1
sS'sparks'
p1878
I1
sS'Khan'
p1879
I1
sS'winner'
p1880
I2
sS'should'
p1881
I3
sS'terminal'
p1882
I1
sS'Sons'
p1883
I1
sS'York'
p1884
I2
sS'thousands'
p1885
I2
sS'day-old'
p1886
I1
sS'Ngo'
p1887
I1
sS'19-9'
p1888
I1
sS"'giving"
p1889
I1
sS'joint'
p1890
I1
sS'burglary'
p1891
I1
sS'second-half'
p1892
I1
sS'Dial'
p1893
I1
sS'Because'
p1894
I1
sS"'don't"
p1895
I1
sS'calling'
p1896
I2
sS'Wall'
p1897
I1
sS"manager's"
p1898
I1
sS'she'
p1899
I1
sS'allegation'
p1900
I1
sS'Ps'
p1901
I1
sS'temporarily'
p1902
I1
sS"Oxford's"
p1903
I1
sS'frame'
p1904
I1
sS"'carjacking'"
p1905
I2
sS'officials'
p1906
I2
sS'signed'
p1907
I2
sS'closes'
p1908
I1
sS'Arrives'
p1909
I1
sS'Sinks'
p1910
I1
sS'Seconds'
p1911
I1
sS'nuclear'
p1912
I1
sS'Hike'
p1913
I3
sS'Lynch-Clinton'
p1914
I1
sS'PI'
p1915
I1
sS'email'
p1916
I3
sS'PM'
p1917
I1
sS"'soldiers"
p1918
I1
sS'S'
I11
sS'Himself'
p1919
I2
sS'EFL'
p1920
I2
sS'key'
p1921
I2
sS'hits'
p1922
I3
sS'admin'
p1923
I1
sS'Dreamed'
p1924
I1
sS'drug'
p1925
I1
sS'rams'
p1926
I1
sS'Indies'
p1927
I2
sS'volley'
p1928
I1
sS'heart'
p1929
I1
sS'withdraws'
p1930
I3
sS'Her'
p1931
I1
sS'Haye'
p1932
I1
sS'Garry'
p1933
I1
sS'respect'
p1934
I1
sS"Women's"
p1935
I1
sS'Rewards'
p1936
I1
sS'trademark'
p1937
I1
sS'Immigration'
p1938
I1
sS'responds'
p1939
I1
sS'permanent'
p1940
I1
sS'Speak'
p1941
I1
sS'of\xc2'
p1942
I2
sS'reshape'
p1943
I1
sS'Center'
p1944
I1
sS'Puzder'
p1945
I1
sS'overwhelmingly'
p1946
I1
sS'kickers'
p1947
I1
sS'Nations'
p1948
I7
sS"doesn't"
p1949
I1
sS'Credit'
p1950
I1
sS'kicks'
p1951
I1
sS'Jason'
p1952
I1
sS'an'
p1953
I2
sS'And'
p1954
I1
sS'smartphones'
p1955
I1
sS'Force'
p1956
I1
sS'Warns'
p1957
I3
sS'Hot'
p1958
I1
sS'General'
p1959
I2
sS'will'
p1960
I4
sS"America's"
p1961
I2
sS'Troops'
p1962
I1
sS'bicker'
p1963
I1
sS'almost'
p1964
I1
sS'Celtic'
p1965
I1
sS'rips'
p1966
I1
sS'Shackled'
p1967
I1
sS"Russia's"
p1968
I2
sS'You'
p1969
I4
sS'Singhal'
p1970
I1
sS'Briton'
p1971
I1
sS'Beat'
p1972
I1
sS'administration'
p1973
I2
sS'Insults'
p1974
I1
sS'free-kick'
p1975
I1
sS'Golf'
p1976
I1
sS'gets'
p1977
I1
sS'injured'
p1978
I2
sS'Entire'
p1979
I1
sS'1-0'
p1980
I4
sS'Coral'
p1981
I1
sS'1-2'
p1982
I2
sS'off'
p1983
I5
sS'Senate'
p1984
I1
sS'Aberdeen'
p1985
I1
sS'Muir'
p1986
I2
sS'thought'
p1987
I2
sS'patterns'
p1988
I1
sS'Have'
p1989
I2
sS'Need'
p1990
I1
sS'realised'
p1991
I1
sS'taller'
p1992
I1
sS'Entitlement'
p1993
I1
sS'less'
p1994
I1
sS'Liftoff'
p1995
I1
sS'Access'
p1996
I1
sS'Care'
p1997
I1
sS'Shale'
p1998
I1
sS'Flynn'
p1999
I1
sS'Gill'
p2000
I1
sS'Be'
p2001
I3
sS'field'
p2002
I1
sS'Kraft'
p2003
I1
sS'By'
p2004
I1
sS'Special\xe2'
p2005
I2
sS'tests'
p2006
I1
sS'Launch'
p2007
I1
sS'checking'
p2008
I1
sS'Dinner'
p2009
I1
sS'historic'
p2010
I1
sS'five'
p2011
I2
sS'know'
p2012
I2
sS'Salazar'
p2013
I1
sS'Release'
p2014
I1
sS'Fallen'
p2015
I1
sS'England'
p2016
I9
sS'helpful'
p2017
I1
sS'lost'
p2018
I1
sS'loses'
p2019
I1
sS'lose'
p2020
I1
sS'leaves'
p2021
I1
sS'Dustin'
p2022
I1
sS'refugees'
p2023
I1
sS'because'
p2024
I1
sS'footage'
p2025
I1
sS'Climate'
p2026
I1
sS"There's"
p2027
I1
sS'home'
p2028
I2
sS'Jonathan'
p2029
I1
sS'Claims'
p2030
I2
sS'Singapore'
p2031
I1
sS'Was'
p2032
I1
sS'does'
p2033
I1
sS'Bull'
p2034
I1
sS'Brexit\xc2'
p2035
I1
sS'Inside'
p2036
I1
sS'Official'
p2037
I1
sS'Up'
p2038
I2
sS'Us'
p2039
I3
sS'Pence'
p2040
I3
sS'Un'
p2041
I1
sS'Planned'
p2042
I1
sS'baffling'
p2043
I1
sS'stage'
p2044
I3
sS'about'
p2045
I5
sS'getting'
p2046
I1
sS'US'
p2047
I11
sS"Statham's"
p2048
I1
sS'UN'
p2049
I2
sS'on-stage'
p2050
I1
sS'urges'
p2051
I1
sS'fatally'
p2052
I1
sS'Really'
p2053
I1
sS'Passes'
p2054
I1
sS'Two'
p2055
I2
sS'included'
p2056
I1
sS'Labour'
p2057
I2
sS'female'
p2058
I1
sS'Insurers'
p2059
I1
sS'Awareness'
p2060
I1
sS'Bingham'
p2061
I1
sS"Foxes'"
p2062
I2
sS'Abdel-Rahman'
p2063
I1
sS'Assistant'
p2064
I1
sS'Spell'
p2065
I1
sS'Upon'
p2066
I1
sS'Child'
p2067
I1
sS'in\xc2'
p2068
I1
sS'Rejection'
p2069
I1
sS'chatting'
p2070
I1
sS'Losses'
p2071
I1
sS'agrees'
p2072
I1
sS'but'
p2073
I1
sS'goals'
p2074
I2
sS"Flynn's"
p2075
I1
sS'highest'
p2076
I1
sS'Chelsea'
p2077
I1
sS'he'
p2078
I6
sS'made'
p2079
I1
sS'tactics'
p2080
I1
sS'calls'
p2081
I4
sS'Proposed'
p2082
I1
sS'whether'
p2083
I1
sS'Zlatan'
p2084
I1
sS'record'
p2085
I3
sS'Britain'
p2086
I1
sS'chairmanship'
p2087
I1
sS'limit'
p2088
I1
sS'Tes'
p2089
I1
sS'Insurance'
p2090
I1
sS'CIA'
p2091
I1
sS'Garth'
p2092
I1
sS'twist'
p2093
I1
sS'beats'
p2094
I3
sS'websites'
p2095
I1
sS'flight'
p2096
I1
sS'app\xc2'
p2097
I1
sS'champion'
p2098
I1
sS'Sessions'
p2099
I7
sS'86'
p2100
I1
sS'Million'
p2101
I3
sS'Dictators'
p2102
I1
sS'Delivery'
p2103
I1
sS'Islamic'
p2104
I1
sS'other'
p2105
I1
sS'Five'
p2106
I1
sS"'Terrorism"
p2107
I1
sS'Pietersen'
p2108
I1
sS'conclusion'
p2109
I1
sS'convicts'
p2110
I1
sS'Like'
p2111
I1
sS'stay'
p2112
I1
sS'April'
p2113
I1
sS'Future'
p2114
I1
sS'U'
I10
sS'Morgan'
p2115
I1
sS'Lose'
p2116
I1
sS'repeal'
p2117
I1
sS'friends'
p2118
I1
sS'South'
p2119
I1
sS'Private'
p2120
I1
sS'Ruck-gate'
p2121
I1
ssS'_mapping'
p2122
(dp2123
g18
I1619
sg19
I471
sg20
I1827
sg21
I115
sg22
I1188
sg23
I73
sg24
I44
sg25
I789
sg26
I319
sg27
I1021
sg28
I1365
sg29
I1413
sg30
I1246
sg31
I149
sg32
I715
sg33
I1339
sg34
I2091
sg35
I1214
sg36
I1937
sg37
I950
sg38
I1867
sg39
I760
sg40
I1610
sg41
I1892
sg42
I1801
sg43
I362
sg44
I1939
sg45
I396
sg46
I1789
sg47
I1084
sg48
I1490
sg49
I1691
sg50
I198
sg51
I1079
sg52
I2118
sS'A'
I1521
sg53
I423
sg54
I1218
sg55
I1174
sg56
I1529
sg57
I1435
sg58
I1351
sg59
I1376
sg60
I344
sg61
I1222
sg62
I1453
sg63
I1098
sg64
I1545
sg65
I140
sg66
I1030
sg67
I2054
sg68
I326
sg69
I2020
sg70
I803
sg71
I518
sg72
I1971
sg73
I63
sg74
I892
sg75
I1833
sg76
I2089
sg77
I2056
sg78
I1343
sg79
I1336
sg80
I1092
sg81
I731
sg82
I957
sg83
I54
sg84
I143
sg85
I462
sg86
I180
sg87
I1747
sg88
I1198
sg89
I1427
sg90
I1909
sg91
I778
sg92
I851
sg93
I431
sg94
I1595
sg95
I700
sg96
I1784
sg97
I407
sg98
I1979
sg99
I134
sg100
I869
sg101
I170
sg102
I482
sg103
I1806
sg104
I280
sg105
I675
sg106
I956
sg107
I568
sg108
I251
sg109
I33
sg110
I627
sg111
I329
sg112
I834
sg113
I129
sg114
I1130
sg115
I1520
sg116
I1028
sg117
I2064
sg118
I587
sg119
I929
sg120
I2093
sg121
I2041
sg122
I309
sg123
I1096
sg124
I1407
sg125
I466
sg126
I1316
sg127
I4
sg128
I1960
sg129
I1783
sg130
I1760
sg131
I804
sg132
I92
sg133
I1966
sg134
I717
sg135
I55
sg136
I1094
sg137
I1373
sg138
I93
sg139
I1058
sg140
I1976
sg141
I446
sg142
I1844
sg143
I1018
sg144
I203
sg145
I1209
sg146
I1019
sg147
I333
sg148
I2021
sg149
I994
sg150
I1501
sg151
I2030
sg152
I1220
sg153
I1591
sg154
I1251
sg155
I1626
sg156
I1648
sg157
I2008
sg158
I751
sg159
I641
sg160
I327
sg161
I1147
sg162
I1870
sg163
I192
sg164
I894
sg165
I1845
sg166
I1944
sg167
I121
sg168
I982
sg169
I1276
sg170
I809
sg171
I716
sg172
I1972
sg173
I69
sg174
I1048
sg175
I1362
sg176
I903
sg177
I132
sg178
I1268
sg179
I2107
sg180
I1625
sg181
I1936
sg182
I1289
sg183
I1829
sg184
I1543
sg185
I323
sg186
I315
sg187
I1818
sg188
I574
sg189
I1821
sS'W'
I1517
sg190
I1438
sg191
I783
sg192
I1539
sg193
I1138
sg194
I137
sg195
I608
sg196
I1229
sg197
I1116
sg198
I838
sg199
I708
sg200
I846
sg201
I1565
sg202
I542
sg203
I353
sg204
I2122
sg12
I0
sg205
I1494
sg206
I872
sg207
I1243
sg208
I2100
sg209
I533
sg210
I1797
sg211
I645
sg212
I89
sg213
I210
sg214
I1071
sg215
I1342
sg216
I1599
sg217
I844
sg218
I1281
sg219
I1928
sg220
I480
sg221
I1036
sg222
I416
sg223
I209
sg224
I155
sS'-'
I14
sg225
I1949
sg226
I988
sg227
I23
sg228
I790
sS'\xc2'
I924
sg229
I1056
sg230
I290
sg231
I1768
sg232
I1433
sg233
I657
sg234
I9
sg235
I1375
sg236
I389
sg237
I1905
sg238
I785
sg239
I919
sg240
I567
sg241
I1128
sg242
I1345
sg243
I529
sg244
I1778
sg245
I346
sg246
I430
sg247
I1395
sg248
I125
sg249
I1632
sg250
I1302
sg251
I1115
sg252
I465
sg253
I1255
sg254
I2016
sg255
I583
sg256
I1042
sg257
I527
sg258
I524
sg259
I112
sg260
I1917
sg261
I1916
sg262
I532
sg263
I1507
sg264
I1151
sg265
I1085
sg266
I1239
sg267
I29
sg268
I1026
sg269
I1180
sg270
I1169
sg271
I701
sS'X'
I505
sg272
I1354
sg273
I1550
sg274
I2114
sg275
I1880
sg276
I1659
sg277
I1267
sg278
I1317
sg279
I843
sg280
I2081
sg281
I85
sg282
I1677
sg283
I1201
sg284
I588
sg285
I1935
sg286
I420
sg287
I995
sg288
I195
sg289
I1999
sg290
I1140
sg291
I787
sg292
I398
sg293
I2075
sg294
I354
sg295
I1581
sg296
I915
sg297
I393
sg298
I278
sg299
I648
sg300
I1788
sg301
I1272
sg302
I740
sg303
I1293
sg304
I594
sg305
I394
sg306
I1270
sg307
I1667
sg308
I1575
sg309
I1819
sg310
I96
sg311
I448
sg312
I415
sg313
I1509
sg314
I1318
sg315
I1489
sg316
I1735
sg317
I1992
sg318
I692
sg319
I799
sg320
I141
sg321
I1840
sg322
I1678
sg323
I1107
sg324
I1385
sg325
I177
sg326
I216
sg327
I784
sg328
I222
sg329
I2120
sg330
I1011
sg331
I1780
sg332
I1663
sg333
I1108
sg334
I1487
sg335
I979
sg336
I1606
sg337
I580
sg338
I345
sg339
I1607
sg340
I1338
sg341
I254
sg342
I1754
sg343
I522
sg344
I507
sg345
I998
sg346
I1947
sg347
I1987
sg348
I297
sg349
I366
sg350
I1499
sg351
I1357
sg352
I1139
sg353
I91
sg354
I387
sg355
I231
sg356
I1518
sg357
I1557
sg358
I46
sg359
I1872
sg360
I2108
sg361
I1012
sg362
I1969
sg363
I281
sg364
I1921
sg365
I1191
sg366
I1475
sg367
I686
sg368
I151
sg369
I2059
sg370
I1938
sg371
I1825
sg372
I877
sg373
I1736
sg374
I2002
sg375
I422
sg376
I1573
sg377
I460
sg378
I1769
sg379
I791
sg380
I1906
sg381
I1927
sg382
I907
sg383
I26
sg384
I383
sg385
I991
sg386
I200
sg387
I40
sg388
I2058
sg389
I1158
sg390
I43
sg391
I2101
sg392
I435
sg393
I646
sg394
I1319
sg395
I819
sg396
I1751
sg397
I1836
sg398
I450
sg399
I1990
sg400
I1574
sg401
I742
sg402
I1
sg403
I1481
sg404
I1994
sg405
I647
sg406
I830
sg407
I100
sg408
I105
sg409
I1024
sg410
I1323
sg411
I37
sg412
I730
sg413
I976
sg414
I1513
sg415
I1912
sg416
I2000
sg417
I212
sg418
I225
sg419
I1077
sg420
I1434
sg421
I912
sg422
I1166
sg423
I481
sg424
I560
sg425
I110
sg426
I1197
sg427
I299
sg428
I825
sg429
I2103
sg430
I880
sg431
I1664
sg432
I1070
sg433
I550
sg434
I944
sg435
I236
sg436
I57
sg437
I691
sg438
I1271
sg439
I578
sg440
I610
sg441
I1238
sg442
I1236
sg443
I437
sg444
I1423
sg445
I1930
sg446
I347
sg447
I2013
sg448
I1628
sg449
I1514
sg450
I390
sg451
I1261
sg452
I295
sg453
I2076
sg454
I758
sg455
I1340
sg456
I232
sg457
I1083
sg458
I273
sg459
I881
sg460
I1816
sg461
I962
sg462
I622
sg463
I628
sg464
I1061
sg465
I1299
sg466
I2125
sg467
I1203
sg468
I1859
sg469
I773
sg470
I1584
sg471
I1341
sg472
I322
sg473
I417
sg474
I1907
sg475
I1347
sg476
I1312
sg477
I682
sg478
I1215
sg479
I1993
sg480
I1118
sg481
I2006
sg482
I1650
sg483
I1471
sg484
I1654
sg485
I61
sg486
I79
sg487
I936
sg488
I735
sg489
I1552
sg490
I373
sg491
I1462
sg492
I1141
sg493
I1308
sg494
I335
sg495
I1919
sg496
I274
sg497
I456
sg498
I947
sg499
I1482
sg500
I1761
sg501
I755
sg502
I1254
sg503
I337
sg504
I1732
sg505
I1826
sg506
I1332
sg507
I117
sg508
I2035
sg509
I841
sg510
I693
sg511
I687
sg512
I802
sg513
I983
sg514
I649
sg515
I240
sg516
I1681
sg517
I1567
sg518
I1359
sg519
I234
sg520
I1959
sg521
I1848
sg522
I1258
sg523
I703
sg524
I1467
sg525
I666
sg526
I753
sg527
I138
sg528
I1690
sg529
I1742
sg530
I898
sg531
I289
sg532
I17
sg533
I1099
sg534
I1866
sg535
I1137
sg536
I193
sg537
I235
sg538
I1204
sg539
I766
sg540
I990
sg541
I1417
sg542
I794
sg543
I765
sg544
I966
sg545
I674
sg546
I1381
sg547
I665
sg548
I1802
sg549
I584
sg550
I118
sg551
I1585
sg552
I676
sg553
I1110
sg554
I194
sg555
I260
sg556
I1273
sg557
I358
sg558
I1002
sg559
I357
sg560
I421
sg561
I258
sg562
I253
sg563
I444
sg564
I1463
sg565
I1572
sg566
I122
sg567
I1500
sg568
I1148
sg569
I718
sg570
I2007
sg571
I1452
sg572
I1466
sg573
I1361
sg574
I2097
sg575
I1172
sg576
I713
sg577
I433
sg578
I1890
sg579
I1860
sg580
I495
sg581
I1403
sg582
I227
sg583
I694
sg584
I188
sg585
I1091
sg586
I104
sg587
I109
sg588
I905
sg589
I626
sg590
I313
sg591
I1397
sg592
I738
sg593
I1320
sg594
I1776
sg595
I66
sg596
I228
sg597
I514
sg598
I1133
sg599
I1720
sg600
I1057
sg601
I1879
sg602
I2111
sg603
I1889
sg604
I1531
sg605
I1597
sg606
I397
sg607
I2026
sg608
I519
sg609
I1081
sg610
I371
sg611
I1327
sg612
I453
sg613
I2065
sg614
I1932
sg615
I604
sg616
I1425
sg617
I908
sg618
I913
sg619
I341
sg620
I1611
sg621
I1135
sg622
I1103
sg623
I871
sg624
I374
sg625
I1696
sg626
I1528
sg627
I1245
sg628
I1777
sg629
I1940
sg630
I725
sS'1'
I382
sg631
I363
sg632
I1902
sg633
I32
sg634
I267
sg635
I113
sg636
I1027
sg637
I1699
sg638
I168
sg639
I90
sg640
I401
sg641
I642
sg642
I1288
sg643
I1687
sg644
I1396
sg645
I788
sg646
I413
sg647
I1526
sg648
I1458
sg649
I1111
sg650
I1483
sg651
I688
sg652
I1838
sg653
I848
sg654
I884
sg655
I221
sg656
I1942
sg657
I999
sg658
I330
sg659
I1931
sg660
I1414
sg661
I1050
sg662
I1786
sg663
I1884
sg664
I2023
sg665
I1613
sg666
I1478
sg667
I967
sg668
I1757
sg669
I1863
sg670
I1386
sg671
I492
sg672
I1669
sg673
I1275
sg674
I30
sg675
I427
sg676
I2012
sg677
I711
sg678
I1530
sg679
I174
sg680
I1998
sg681
I1439
sg682
I1078
sg683
I1637
sg684
I131
sg685
I343
sg686
I1240
sg687
I858
sg688
I2121
sg689
I535
sg690
I1782
sg691
I1753
sg692
I558
sg693
I857
sg694
I349
sg695
I469
sg696
I1738
sg697
I146
sg698
I741
sg699
I442
sg700
I1007
sg701
I184
sg702
I1504
sg703
I901
sg704
I2019
sg705
I1126
sg706
I1525
sg707
I265
sg708
I1929
sg709
I1399
sg710
I1033
sg711
I554
sg712
I1367
sg713
I1125
sg714
I264
sg715
I1256
sg716
I102
sg717
I722
sg718
I2082
sg719
I191
sg720
I489
sg721
I162
sg722
I609
sg723
I1981
sg724
I1897
sg725
I1564
sS'2'
I211
sg726
I119
sg727
I814
sg728
I1363
sg729
I537
sg730
I633
sg731
I1469
sg732
I1996
sg733
I351
sg734
I1192
sg735
I761
sg736
I655
sg737
I1031
sg738
I1221
sg739
I1862
sg740
I509
sg741
I1000
sg742
I1975
sg743
I1170
sg744
I2092
sg745
I1121
sg746
I45
sg747
I367
sg748
I18
sg749
I951
sg750
I153
sg751
I1893
sg752
I2024
sg753
I128
sg754
I2014
sg755
I1554
sg756
I1524
sg757
I454
sg758
I1604
sg759
I321
sg760
I1869
sg761
I1614
sg762
I1855
sg763
I1185
sg764
I1497
sg765
I1369
sg766
I1502
sg767
I652
sg768
I1311
sg769
I1496
sg770
I1559
sg771
I590
sg772
I865
sg773
I50
sg774
I644
sg775
I1090
sg776
I777
sg777
I98
sg778
I888
sg779
I70
sg780
I1212
sg781
I108
sg782
I1014
sg783
I1534
sg784
I370
sg785
I798
sg786
I1772
sg787
I942
sg788
I623
sg789
I266
sg790
I726
sg791
I1723
sg792
I916
sg793
I64
sg794
I2074
sg795
I1426
sg796
I1965
sg797
I1596
sg798
I1349
sg799
I1640
sg800
I756
sg801
I856
sg802
I993
sg803
I624
sg804
I1189
sg805
I316
sg806
I1350
sg807
I750
sg808
I1651
sg809
I586
sg810
I685
sg811
I1106
sg812
I68
sg813
I384
sg814
I452
sg815
I1873
sg816
I1163
sg817
I887
sg818
I1485
sS'3'
I348
sg819
I1593
sg820
I1391
sg821
I816
sg822
I1047
sg823
I163
sg824
I598
sg825
I1101
sg826
I746
sg827
I1164
sg828
I1991
sg829
I954
sg830
I103
sg831
I1472
sg832
I2039
sg833
I1733
sg834
I1001
sg835
I571
sg836
I1207
sg837
I1087
sg838
I747
sS's'
I286
sg839
I899
sg840
I1067
sg841
I1658
sg842
I1839
sg843
I1167
sg844
I1304
sg845
I201
sg846
I414
sg847
I206
sg848
I1701
sg849
I1325
sg850
I1038
sg851
I941
sg852
I219
sg853
I984
sg854
I1465
sg855
I1812
sg856
I1112
sg857
I1450
sg858
I2115
sg859
I1995
sg860
I1448
sg861
I1875
sg862
I317
sg863
I770
sg864
I1986
sg865
I1631
sg866
I441
sg867
I506
sg868
I1834
sg869
I987
sg870
I275
sg871
I474
sg872
I1177
sg873
I1356
sg874
I1830
sg875
I2015
sg876
I324
sg877
I2071
sg878
I467
sg879
I1888
sg880
I530
sg881
I1967
sg882
I1230
sg883
I1264
sg884
I1303
sg885
I1046
sg886
I1673
sg887
I294
sg888
I621
sg889
I10
sg890
I1277
sg891
I320
sg892
I1548
sg893
I1178
sg894
I1697
sg895
I496
sg896
I1205
sg897
I684
sg898
I285
sS'I'
I139
sg899
I1398
sg900
I395
sg901
I304
sg902
I1145
sg903
I709
sg904
I1978
sg905
I2053
sg906
I669
sg907
I520
sg908
I1798
sg909
I534
sg910
I262
sg911
I252
sg912
I67
sg913
I1437
sg914
I1721
sg915
I1190
sg916
I325
sg917
I1059
sg918
I1620
sg919
I342
sg920
I820
sg921
I425
sg922
I48
sg923
I1065
sg924
I1237
sg925
I1142
sg926
I229
sg927
I948
sg928
I1558
sg929
I1072
sg930
I1846
sg931
I720
sg932
I678
sg933
I745
sg934
I1847
sg935
I1600
sg936
I698
sg937
I896
sg938
I1388
sg939
I625
sg940
I1371
sg941
I58
sg942
I186
sg943
I797
sg944
I1639
sg945
I2086
sg946
I977
sg947
I1773
sg948
I1805
sg949
I774
sg950
I1933
sS't'
I1032
sg951
I511
sg952
I536
sg953
I22
sg954
I284
sg955
I428
sg956
I781
sg957
I2011
sg958
I1951
sg959
I1102
sg960
I1706
sg961
I372
sg962
I1638
sg963
I439
sg964
I974
sg965
I862
sg966
I1686
sg967
I897
sg968
I1408
sg969
I1977
sg970
I6
sg971
I1208
sg972
I41
sg973
I76
sg974
I331
sg975
I400
sg976
I19
sg977
I2112
sg978
I208
sg979
I166
sg980
I1908
sg981
I1629
sg982
I1765
sg983
I930
sg984
I147
sg985
I1086
sg986
I1895
sg987
I62
sg988
I336
sg989
I763
sg990
I1181
sg991
I243
sg992
I1922
sg993
I1771
sS'J'
I1577
sg994
I651
sg995
I1675
sg996
I1538
sg997
I49
sg998
I1244
sg999
I1337
sg1000
I921
sg1001
I1544
sg1002
I689
sg1003
I739
sg1004
I1580
sg1005
I1097
sg1006
I1196
sg1007
I835
sg1008
I563
sg1009
I1730
sg1010
I699
sg1011
I1891
sg1012
I504
sg1013
I1612
sg1014
I2055
sg1015
I169
sg1016
I659
sg1017
I82
sg1018
I205
sg1019
I298
sg1020
I917
sg1021
I1910
sg1022
I1298
sg1023
I1379
sg1024
I2096
sg1025
I409
sg1026
I1982
sg1027
I303
sg1028
I1964
sg1029
I1088
sg1030
I630
sg1031
I1279
sS'5'
I287
sg1032
I318
sg1033
I1752
sg1034
I985
sg1035
I639
sg1036
I1010
sg1037
I1729
sg1038
I1419
sg1039
I1657
sg1040
I237
sg1041
I1241
sg1042
I671
sg1043
I2104
sg1044
I31
sg1045
I15
sg1046
I970
sg1047
I638
sg1048
I1348
sg1049
I764
sg1050
I1253
sg1051
I1540
sg1052
I780
sg1053
I1442
sg1054
I782
sg1055
I833
sg1056
I1587
sg1057
I1114
sg1058
I1898
sg1059
I762
sg1060
I1676
sg1061
I1913
sg1062
I813
sg1063
I1601
sg1064
I1020
sg1065
I272
sg1066
I1154
sg1067
I1851
sg1068
I1003
sg1069
I2123
sg1070
I1551
sg1071
I2124
sg1072
I1703
sg1073
I35
sg1074
I1080
sg1075
I1665
sg1076
I282
sg1077
I12
sg1078
I1093
sg1079
I906
sg1080
I932
sg1081
I269
sg1082
I664
sg1083
I1157
sg1084
I306
sg1085
I2069
sg1086
I1468
sg1087
I1064
sg1088
I2126
sg1089
I499
sg1090
I2060
sg1091
I868
sg1092
I359
sg1093
I540
sg1094
I1321
sg1095
I1105
sg1096
I1700
sg1097
I1370
sg1098
I1911
sg1099
I1045
sg1100
I1179
sg1101
I1156
sg1102
I564
sg1103
I1029
sg1104
I839
sg1105
I406
sg1106
I207
sg1107
I1820
sg1108
I1484
sg1109
I1956
sg1110
I491
sg1111
I1767
sg1112
I748
sg1113
I1728
sg1114
I1410
sg1115
I1885
sg1116
I1515
sg1117
I1282
sg1118
I1918
sg1119
I1393
sg1120
I1549
sg1121
I2036
sg1122
I1120
sg1123
I145
sg1124
I1649
sg1125
I350
sg1126
I1464
sg1127
I2037
sg1128
I161
sg1129
I1510
sg1130
I1598
sg1131
I1043
sg1132
I376
sg1133
I1216
sg1134
I51
sg1135
I487
sg1136
I1160
sg1137
I171
sg1138
I581
sg1139
I1643
sg1140
I712
sg1141
I1793
sg1142
I1404
sg1143
I937
sg1144
I1082
sg1145
I356
sg1146
I1041
sg1147
I2109
sS'v'
I339
sg1148
I340
sg1149
I501
sg1150
I1095
sg1151
I1578
sg1152
I1662
sg1153
I769
sg1154
I1274
sg1155
I1748
sg1156
I1486
sg1157
I859
sg1158
I557
sg1159
I502
sg1160
I1920
sg1161
I176
sg1162
I1970
sg1163
I334
sg1164
I2005
sg1165
I673
sg1166
I2052
sg1167
I279
sg1168
I477
sg1169
I111
sg1170
I238
sg1171
I1025
sS'a'
I83
sg1172
I1432
sg1173
I1287
sg1174
I488
sg1175
I1722
sg1176
I1131
sg1177
I1257
sg1178
I386
sg1179
I497
sg1180
I989
sg1181
I1224
sg1182
I886
sg1183
I215
sg1184
I1774
sg1185
I377
sg1186
I1569
sg1187
I1704
sg1188
I404
sg1189
I165
sg1190
I1946
sg1191
I1134
sg1192
I457
sg1193
I1823
sg1194
I1159
sg1195
I106
sg1196
I2117
sg1197
I1322
sg1198
I1409
sg1199
I223
sg1200
I107
sg1201
I629
sg1202
I549
sg1203
I182
sg1204
I486
sg1205
I1479
sg1206
I1372
sg1207
I1219
sg1208
I2068
sg1209
I78
sg1210
I1129
sg1211
I938
sg1212
I2106
sg1213
I1062
sg1214
I2040
sg1215
I185
sg1216
I1263
sg1217
I1792
sg1218
I1300
sg1219
I1412
sg1220
I866
sg1221
I1713
sg1222
I1989
sg1223
I1456
sg1224
I981
sg1225
I1853
sg1226
I1588
sg1227
I1405
sg1228
I1603
sg1229
I517
sg1230
I1745
sg1231
I1292
sg1232
I1656
sg1233
I707
sg1234
I1726
sg1235
I1503
sg1236
I181
sg1237
I2044
sg1238
I380
sg1239
I1702
sg1240
I355
sg1241
I606
sg1242
I1522
sg1243
I889
sg1244
I1161
sg1245
I2031
sg1246
I595
sg1247
I1680
sg1248
I352
sg1249
I576
sg1250
I566
sg1251
I1608
sg1252
I307
sg1253
I963
sg1254
I1915
sg1255
I1849
sg1256
I255
sg1257
I1652
sg1258
I1100
sg1259
I1193
sg1260
I1516
sg1261
I1284
sg1262
I914
sg1263
I1429
sg1264
I704
sg1265
I902
sg1266
I1901
sg1267
I1685
sg1268
I483
sg1269
I1017
sg1270
I1402
sg1271
I490
sg1272
I455
sg1273
I213
sg1274
I1422
sg1275
I1568
sg1276
I1004
sg1277
I1740
sg1278
I1104
sg1279
I94
sg1280
I1480
sg1281
I1171
sg1282
I1813
sg1283
I2119
sg1284
I86
sg1285
I2087
sg1286
I1307
sg1287
I1535
sg1288
I796
sg1289
I1882
sg1290
I940
sg1291
I653
sg1292
I1519
sg1293
I528
sg1294
I1718
sg1295
I1957
sg1296
I575
sg1297
I710
sg1298
I226
sg1299
I1460
sg1300
I603
sg1301
I737
sg1302
I1223
sg1303
I690
sg1304
I2066
sg1305
I1710
sg1306
I1716
sg1307
I2088
sg1308
I1044
sg1309
I1069
sg1310
I1984
sg1311
I1570
sg1312
I1671
sg1313
I1925
sg1314
I130
sg1315
I600
sg1316
I2017
sg1317
I1015
sg1318
I955
sg1319
I1973
sg1320
I855
sg1321
I1766
sg1322
I714
sg1323
I364
sg1324
I705
sg1325
I593
sg1326
I1512
sg1327
I160
sg1328
I1618
sg1329
I925
sg1330
I875
sg1331
I1904
sg1332
I681
sg1333
I2083
sg1334
I553
sg1335
I136
sS'8'
I87
sg1336
I1052
sg1337
I920
sg1338
I768
sg1339
I1841
sg1340
I1579
sg1341
I632
sg1342
I1389
sg1343
I918
sg1344
I1377
sg1345
I935
sg1346
I53
sg1347
I986
sg1348
I11
sg1349
I1400
sg1350
I663
sg1351
I582
sg1352
I2022
sg1353
I1714
sg1354
I148
sg1355
I123
sg1356
I1380
sg1357
I1411
sg1358
I602
sg1359
I167
sg1360
I1023
sg1361
I1416
sg1362
I183
sg1363
I276
sg1364
I547
sg1365
I801
sg1366
I2078
sg1367
I2049
sg1368
I256
sg1369
I239
sg1370
I828
sg1371
I1724
sg1372
I1150
sg1373
I418
sg1374
I1149
sg1375
I822
sg1376
I1532
sg1377
I199
sg1378
I1124
sg1379
I579
sg1380
I1857
sg1381
I379
sg1382
I1063
sg1383
I620
sg1384
I1586
sg1385
I1266
sg1386
I1963
sg1387
I596
sg1388
I879
sg1389
I1582
sg1390
I1883
sg1391
I1353
sg1392
I1278
sg1393
I1886
sg1394
I1794
sg1395
I1899
sg1396
I2077
sg1397
I2113
sg1398
I589
sg1399
I88
sg1400
I1066
sg1401
I292
sg1402
I1556
sg1403
I1553
sg1404
I1636
sg1405
I1679
sg1406
I447
sg1407
I314
sg1408
I1470
sg1409
I525
sg1410
I42
sg1411
I680
sg1412
I1249
sg1413
I523
sg1414
I217
sg1415
I516
sg1416
I2043
sg1417
I923
sS'4'
I1541
sg1418
I1828
sg1419
I874
sg1420
I494
sg1421
I1242
sg1422
I1954
sg1423
I1809
sg1424
I1060
sg1425
I643
sg1426
I1260
sg1427
I2063
sg1428
I656
sg1429
I743
sg1430
I493
sg1431
I1781
sg1432
I824
sg1433
I1624
sg1434
I1051
sg1435
I808
sg1436
I873
sg1437
I412
sg1438
I961
sg1439
I1461
sg1440
I2070
sg1441
I1758
sg1442
I478
sg1443
I1717
sg1444
I1492
sg1445
I459
sg1446
I291
sg1447
I1290
sg1448
I1055
sg1449
I1948
sg1450
I1035
sg1451
I1537
sg1452
I1605
sg1453
I434
sg1454
I381
sg1455
I2045
sg1456
I1394
sg1457
I157
sg1458
I1144
sg1459
I288
sg1460
I885
sg1461
I403
sg1462
I1623
sg1463
I1474
sg1464
I1566
sg1465
I1053
sg1466
I71
sg1467
I144
sg1468
I1962
sg1469
I733
sg1470
I754
sg1471
I1719
sg1472
I1436
sg1473
I945
sg1474
I101
sg1475
I2029
sg1476
I1670
sg1477
I577
sg1478
I7
sg1479
I95
sg1480
I853
sg1481
I1903
sg1482
I1790
sg1483
I152
sg1484
I922
sg1485
I1364
sg1486
I1627
sg1487
I1324
sg1488
I2027
sg1489
I172
sg1490
I953
sg1491
I1707
sg1492
I438
sg1493
I1346
sg1494
I503
sg1495
I2067
sg1496
I2048
sg1497
I2057
sg1498
I1705
sg1499
I1368
sg1500
I660
sg1501
I2038
sg1502
I36
sg1503
I1926
sg1504
I1708
sg1505
I1305
sg1506
I992
sg1507
I1296
sg1508
I150
sg1509
I1506
sg1510
I1444
sg1511
I1997
sg1512
I732
sg1513
I378
sg1514
I116
sg1515
I958
sg1516
I1326
sg1517
I1226
sg1518
I426
sg1519
I1810
sg1520
I1881
sg1521
I476
sg1522
I1477
sg1523
I197
sg1524
I1684
sg1525
I1764
sg1526
I1162
sg1527
I1787
sg1528
I1430
sg1529
I59
sg1530
I1661
sg1531
I661
sg1532
I721
sg1533
I1250
sg1534
I142
sg1535
I1974
sg1536
I1837
sg1537
I2025
sg1538
I338
sg1539
I1709
sg1540
I1310
sg1541
I826
sg1542
I1621
sg1543
I1109
sg1544
I1961
sg1545
I1358
sg1546
I1382
sg1547
I1694
sg1548
I1420
sg1549
I668
sg1550
I1476
sg1551
I1590
sg1552
I1344
sg1553
I1210
sg1554
I812
sg1555
I1173
sg1556
I1424
sg1557
I1983
sg1558
I2073
sg1559
I1832
sg1560
I1560
sg1561
I410
sg1562
I1315
sg1563
I1824
sg1564
I1152
sS'\xe2'
I570
sg1565
I440
sg1566
I1165
sg1567
I565
sg1568
I1953
sg1569
I2102
sg1570
I475
sg1571
I34
sg1572
I1227
sg1573
I1894
sg1574
I861
sg1575
I39
sg1576
I960
sg1577
I47
sg1578
I1457
sg1579
I1763
sg1580
I823
sg1581
I77
sg1582
I296
sg1583
I365
sg1584
I1374
sg1585
I1117
sg1586
I259
sg1587
I810
sg1588
I27
sg1589
I189
sg1590
I178
sg1591
I1330
sg1592
I805
sg1593
I1653
sg1594
I973
sg1595
I996
sg1596
I432
sg1597
I1988
sg1598
I2033
sg1599
I734
sg1600
I1334
sg1601
I1858
sg1602
I1609
sg1603
I1725
sg1604
I1750
sg1605
I2094
sg1606
I1692
sg1607
I1440
sg1608
I2098
sg1609
I1132
sg1610
I1799
sg1611
I5
sg1612
I1143
sg1613
I1451
sg1614
I1622
sg1615
I1206
sg1616
I1313
sg1617
I369
sg1618
I2110
sg1619
I21
sg1620
I696
sg1621
I2
sg1622
I541
sg1623
I2079
sg1624
I2099
sg1625
I612
sg1626
I1955
sg1627
I1808
sS'P'
I1874
sg1628
I1666
sg1629
I1741
sg1630
I1390
sg1631
I25
sg1632
I1887
sg1633
I463
sg1634
I1934
sg1635
I375
sg1636
I1234
sg1637
I1265
sg1638
I975
sg1639
I1583
sg1640
I607
sg1641
I293
sg1642
I1235
sg1643
I1715
sg1644
I728
sg1645
I1674
sg1646
I368
sg1647
I301
sg1648
I2051
sg1649
I283
sg1650
I1262
sg1651
I1900
sg1652
I815
sg1653
I271
sg1654
I1533
sg1655
I719
sg1656
I613
sg1657
I16
sg1658
I968
sg1659
I836
sg1660
I1443
sg1661
I72
sg1662
I1314
sg1663
I1743
sg1664
I1950
sg1665
I1803
sg1666
I1814
sg1667
I543
sg1668
I1182
sg1669
I1695
sg1670
I1455
sg1671
I1734
sg1672
I1739
sg1673
I601
sg1674
I1914
sg1675
I904
sg1676
I724
sg1677
I311
sg1678
I305
sg1679
I445
sg1680
I2046
sg1681
I436
sg1682
I1807
sg1683
I484
sg1684
I969
sg1685
I827
sg1686
I1871
sg1687
I247
sg1688
I616
sg1689
I931
sg1690
I312
sg1691
I883
sg1692
I1445
sg1693
I1796
sg1694
I1184
sg1695
I1200
sg1696
I2047
sg1697
I56
sg1698
I1804
sg1699
I13
sg1700
I392
sg1701
I28
sg1702
I1187
sg1703
I1333
sg1704
I538
sg1705
I847
sg1706
I1228
sg1707
I854
sg1708
I2080
sg1709
I461
sg1710
I1155
sg1711
I1495
sg1712
I1864
sg1713
I702
sg1714
I850
sg1715
I451
sg1716
I97
sg1717
I1727
sg1718
I792
sg1719
I891
sg1720
I842
sg1721
I683
sg1722
I1645
sg1723
I1655
sg1724
I1868
sg1725
I972
sg1726
I2018
sg1727
I1283
sg1728
I1186
sg1729
I928
sg1730
I1861
sg1731
I1561
sg1732
I1958
sg1733
I1634
sg1734
I1421
sg1735
I1459
sg1736
I752
sg1737
I1843
sg1738
I245
sg1739
I1594
sg1740
I1447
sg1741
I1856
sg1742
I2072
sg1743
I1527
sg1744
I84
sg1745
I1286
sg1746
I1231
sg1747
I1602
sg1748
I468
sg1749
I124
sg1750
I1309
sg1751
I485
sg1752
I1006
sg1753
I268
sg1754
I1615
sg1755
I555
sg1756
I662
sg1757
I443
sg1758
I1076
sg1759
I2090
sg1760
I1183
sg1761
I277
sg1762
I1980
sg1763
I1136
sg1764
I723
sg1765
I1054
sg1766
I911
sg1767
I860
sg1768
I127
sg1769
I1822
sg1770
I2095
sS"'"
I158
sg1771
I1737
sg1772
I559
sg1773
I120
sg1774
I218
sg1775
I943
sg1776
I806
sg1777
I246
sg1778
I1153
sg1779
I772
sg1780
I1646
sg1781
I1835
sg1782
I832
sg1783
I1941
sg1784
I1756
sg1785
I2009
sg1786
I636
sg1787
I1005
sg1788
I1576
sg1789
I500
sg1790
I202
sg1791
I1817
sg1792
I1746
sg1793
I1008
sg1794
I424
sg1795
I405
sg1796
I1473
sg1797
I592
sg1798
I545
sg1799
I1355
sg1800
I60
sg1801
I300
sg1802
I1924
sg1803
I2004
sg1804
I1068
sg1805
I241
sg1806
I1194
sg1807
I233
sg1808
I597
sg1809
I1968
sg1810
I539
sg1811
I605
sg1812
I1831
sg1813
I667
sg1814
I1446
sg1815
I1546
sg1816
I949
sg1817
I1252
sg1818
I849
sg1819
I775
sg1820
I1040
sg1821
I795
sg1822
I473
sg1823
I980
sg1824
I411
sg1825
I1617
sg1826
I1779
sg1827
I845
sg1828
I196
sg1829
I1259
sg1830
I1022
sg1831
I1335
sg1832
I831
sg1833
I361
sg1834
I852
sg1835
I821
sg1836
I1693
sg1837
I2034
sg1838
I270
sg1839
I308
sg1840
I1536
sg1841
I1635
sg1842
I154
sg1843
I1247
sg1844
I736
sg1845
I1291
sg1846
I1037
sg1847
I1449
sg1848
I1493
sg1849
I1297
sg1850
I971
sg1851
I1505
sg1852
I1555
sg1853
I619
sg1854
I1562
sg1855
I402
sg1856
I939
sg1857
I156
sg1858
I1815
sg1859
I1378
sg1860
I863
sg1861
I637
sg1862
I573
sg1863
I470
sg1864
I552
sg1865
I531
sg1866
I2062
sg1867
I952
sg1868
I1508
sg1869
I464
sg1870
I114
sg1871
I2001
sg1872
I1563
sg1873
I1415
sg1874
I744
sg1875
I224
sg1876
I408
sg1877
I1352
sg1878
I187
sg1879
I757
sg1880
I458
sg1881
I3
sg1882
I749
sg1883
I551
sg1884
I429
sg1885
I399
sg1886
I385
sg1887
I1488
sg1888
I800
sg1889
I257
sg1890
I1511
sg1891
I1360
sg1892
I776
sg1893
I1454
sg1894
I1877
sg1895
I24
sg1896
I2032
sg1897
I1441
sg1898
I767
sg1899
I261
sg1900
I1647
sg1901
I965
sg1902
I1711
sg1903
I615
sg1904
I1383
sg1905
I631
sg1906
I52
sg1907
I1688
sg1908
I1943
sg1909
I561
sg1910
I1744
sg1911
I510
sg1912
I870
sg1913
I1233
sg1914
I2042
sg1915
I964
sg1916
I909
sg1917
I391
sg1918
I650
sS'S'
I249
sg1919
I1762
sg1920
I978
sg1921
I20
sg1922
I729
sg1923
I1633
sg1924
I1049
sg1925
I697
sg1926
I878
sg1927
I1547
sg1928
I614
sg1929
I1842
sg1930
I81
sg1931
I591
sg1932
I1571
sg1933
I1387
sg1934
I419
sg1935
I164
sg1936
I1269
sg1937
I220
sg1938
I515
sg1939
I910
sg1940
I1384
sg1941
I2061
sg1942
I1122
sg1943
I1785
sg1944
I332
sg1945
I80
sg1946
I175
sg1947
I786
sg1948
I771
sg1949
I2116
sg1950
I817
sg1951
I1217
sg1952
I2084
sg1953
I1682
sg1954
I1876
sg1955
I1123
sg1956
I2003
sg1957
I1039
sg1958
I1985
sg1959
I1952
sg1960
I250
sg1961
I818
sg1962
I585
sg1963
I1498
sg1964
I1113
sg1965
I479
sg1966
I214
sg1967
I562
sg1968
I2028
sg1969
I498
sg1970
I1641
sg1971
I635
sg1972
I807
sg1973
I190
sg1974
I658
sg1975
I617
sg1976
I556
sg1977
I672
sg1978
I634
sg1979
I1896
sg1980
I618
sg1981
I1213
sg1982
I1009
sg1983
I179
sg1984
I1749
sg1985
I1811
sg1986
I449
sg1987
I230
sg1988
I890
sg1989
I548
sg1990
I1074
sg1991
I1146
sg1992
I1119
sg1993
I1034
sg1994
I1791
sg1995
I513
sg1996
I840
sg1997
I1589
sg1998
I1755
sg1999
I38
sg2000
I1211
sg2001
I837
sg2002
I388
sg2003
I521
sg2004
I654
sg2005
I1431
sg2006
I1698
sg2007
I508
sg2008
I1689
sg2009
I829
sg2010
I1523
sg2011
I946
sg2012
I1225
sg2013
I695
sg2014
I1280
sg2015
I1306
sg2016
I959
sg2017
I867
sg2018
I1073
sg2019
I793
sg2020
I1712
sg2021
I1642
sg2022
I1850
sg2023
I640
sg2024
I1644
sg2025
I1660
sg2026
I546
sg2027
I263
sg2028
I65
sg2029
I1852
sg2030
I569
sg2031
I1168
sg2032
I599
sg2033
I1800
sg2034
I997
sg2035
I926
sg2036
I135
sg2037
I544
sg2038
I526
sg2039
I572
sg2040
I244
sg2041
I1248
sg2042
I512
sg2043
I1294
sg2044
I677
sg2045
I133
sg2046
I1491
sg2047
I204
sg2048
I2085
sg2049
I8
sg2050
I1295
sg2051
I933
sg2052
I1089
sg2053
I1013
sg2054
I1945
sg2055
I1795
sg2056
I1854
sg2057
I934
sg2058
I727
sg2059
I1428
sg2060
I75
sg2061
I472
sg2062
I1366
sg2063
I328
sg2064
I1016
sg2065
I2105
sg2066
I1127
sg2067
I1176
sg2068
I1542
sg2069
I1731
sg2070
I893
sg2071
I1878
sg2072
I1775
sg2073
I159
sg2074
I611
sg2075
I99
sg2076
I706
sg2077
I779
sg2078
I360
sg2079
I1683
sg2080
I1195
sg2081
I126
sg2082
I1232
sg2083
I1075
sg2084
I1328
sg2085
I242
sg2086
I927
sg2087
I882
sg2088
I1199
sg2089
I302
sg2090
I1331
sg2091
I1285
sg2092
I1202
sg2093
I1301
sg2094
I1406
sg2095
I1923
sg2096
I679
sg2097
I900
sg2098
I1401
sg2099
I1759
sg2100
I1175
sg2101
I1672
sg2102
I310
sg2103
I1865
sg2104
I864
sg2105
I895
sg2106
I2010
sg2107
I74
sg2108
I1418
sg2109
I1630
sg2110
I1592
sg2111
I1616
sg2112
I1329
sg2113
I759
sg2114
I1770
sS'U'
I248
sg2115
I1668
sg2116
I811
sg2117
I2050
sg2118
I876
sg2119
I173
sg2120
I670
sg2121
I1392
ssS'_reverse_mapping'
p2124
(lp2125
g12
ag402
ag1621
ag1881
ag127
ag1611
ag970
ag1478
ag2049
ag234
ag889
ag1348
ag1077
ag1699
aS'-'
ag1045
ag1657
ag532
ag748
ag976
ag1921
ag1619
ag953
ag227
ag1895
ag1631
ag383
ag1588
ag1701
ag267
ag674
ag1044
ag633
ag109
ag1571
ag1073
ag1502
ag411
ag1999
ag1575
ag387
ag972
ag1410
ag390
ag24
ag746
ag358
ag1577
ag922
ag997
ag773
ag1134
ag1906
ag1346
ag83
ag135
ag1697
ag436
ag941
ag1529
ag1800
ag485
ag987
ag73
ag793
ag2028
ag595
ag912
ag812
ag173
ag779
ag1466
ag1661
ag23
ag2107
ag2060
ag973
ag1581
ag1209
ag486
ag1945
ag1930
ag1017
aS'a'
ag1744
ag281
ag1284
aS'8'
ag1399
ag212
ag639
ag353
ag132
ag138
ag1279
ag1479
ag310
ag1716
ag777
ag2075
ag407
ag1474
ag716
ag830
ag586
ag408
ag1195
ag1200
ag781
ag587
ag425
ag1169
ag259
ag635
ag1870
ag21
ag1514
ag507
ag550
ag726
ag1773
ag167
ag566
ag1355
ag1749
ag248
ag2081
ag1768
ag753
ag113
ag1314
ag684
ag177
ag2045
ag99
ag2036
ag1335
ag194
ag527
aS'I'
ag65
ag320
ag1534
ag84
ag1467
ag1123
ag697
ag984
ag1354
ag31
ag1508
ag368
ag1483
ag750
ag1842
ag224
ag1857
ag1457
aS"'"
ag2073
ag1327
ag1128
ag721
ag823
ag1935
ag1189
ag979
ag1359
ag638
ag1015
ag101
ag1137
ag1489
ag2119
ag679
ag1946
ag1161
ag325
ag1590
ag1983
ag86
ag1236
ag1203
ag1362
ag701
ag1215
ag942
ag1878
ag584
ag1589
ag1973
ag719
ag163
ag536
ag554
ag288
ag1828
ag1523
ag50
ag1377
ag386
ag845
ag1790
ag144
ag2047
ag1018
ag847
ag1106
ag978
ag223
ag213
aS'2'
ag417
ag1273
ag1966
ag1183
ag326
ag1414
ag1774
ag852
ag1937
ag655
ag328
ag1199
ag1875
ag418
ag1298
ag582
ag596
ag926
ag1987
ag355
ag456
ag1807
ag519
ag537
ag435
ag1040
ag1170
ag1369
ag515
ag1805
ag2085
ag991
ag2040
ag1738
ag1777
ag1687
aS'U'
aS'S'
ag1960
ag108
ag911
ag562
ag341
ag1256
ag1368
ag1889
ag561
ag1586
ag555
ag1899
ag910
ag2027
ag714
ag707
ag789
ag634
ag1753
ag1081
ag1838
ag1653
ag1065
ag458
ag496
ag870
ag1363
ag1761
ag298
ag1167
ag104
ag363
ag1076
ag1649
ag954
ag898
aS's'
aS'5'
ag1459
ag531
ag230
ag1446
ag1401
ag1641
ag887
ag452
ag1582
ag348
ag1019
ag427
ag1801
ag1647
ag2089
ag1027
ag901
ag1678
ag1084
ag1252
ag1839
ag122
ag2102
ag1677
ag1690
ag590
ag1407
ag186
ag805
ag862
ag1032
ag26
ag891
ag759
ag472
ag185
ag876
ag916
ag68
ag160
ag2063
ag111
ag658
ag974
ag1944
ag147
ag1163
ag494
ag988
ag503
ag1538
aS'v'
ag1148
ag619
ag919
ag685
ag60
ag338
ag245
ag446
aS'3'
ag694
ag1125
ag733
ag1248
ag203
ag294
ag1240
ag1145
ag559
ag557
ag1092
ag2078
ag1833
ag43
ag631
ag1323
ag1583
ag349
ag747
ag1646
ag1617
ag784
ag610
ag961
ag490
ag624
ag1635
ag1132
ag1185
ag1513
ag1381
ag1238
ag1454
aS'1'
ag384
ag813
ag1886
ag1178
ag354
ag2002
ag236
ag450
ag1917
ag1700
ag297
ag305
ag900
ag45
ag606
ag292
ag1885
ag975
ag640
ag1855
ag1461
ag1188
ag1795
ag1105
ag97
ag1876
ag1025
ag1561
ag1824
ag1437
ag646
ag846
ag312
ag222
ag473
ag1373
ag1934
ag286
ag560
ag375
ag53
ag1794
ag921
ag1518
ag675
ag955
ag1884
ag246
ag93
ag1596
ag577
ag1453
ag392
ag1681
ag443
ag1492
ag963
ag1565
ag866
ag699
ag1757
ag563
ag1679
ag141
ag1406
ag311
ag1986
ag398
ag1715
ag814
ag612
ag757
ag1272
ag497
ag1192
ag1880
ag1445
ag377
ag1709
ag85
ag1633
ag1869
ag252
ag125
ag878
ag1748
ag695
ag1863
ag19
ag2061
ag1822
ag871
ag1570
ag1521
ag1168
ag1442
ag1965
ag220
ag423
ag102
ag1268
ag1683
ag1751
ag1204
ag1135
ag1174
ag720
ag1271
ag1110
ag671
ag1430
ag1420
ag580
ag895
ag1179
ag1969
ag1089
ag1789
ag1149
ag1159
ag1494
ag1012
aS'X'
ag867
ag344
ag2007
ag740
ag1911
ag951
ag2042
ag1995
ag597
ag1938
ag1415
ag1229
ag71
ag608
ag907
ag2003
ag343
ag1413
ag258
ag1409
ag2038
ag257
ag1293
ag243
ag880
ag1865
ag262
ag209
ag909
ag689
ag952
ag729
ag1704
ag1810
ag1093
ag1622
ag202
ag1667
ag2037
ag1798
ag2026
ag1364
ag1989
ag1202
ag433
ag1883
ag1864
ag1334
ag711
ag1755
ag1976
ag1158
ag692
ag1772
ag424
ag1909
ag1967
ag1008
ag1102
ag1567
ag1250
ag240
ag107
ag2030
aS'\xe2'
ag835
ag2039
ag1862
ag188
ag1296
ag1249
ag1477
ag439
ag1379
ag337
ag1138
ag1351
ag255
ag549
ag1962
ag809
ag118
ag284
ag1398
ag771
ag1931
ag1797
ag1325
ag304
ag1246
ag1387
ag1808
ag824
ag2032
ag1315
ag1673
ag1358
ag1300
ag615
ag1811
ag1241
ag1640
ag195
ag722
ag440
ag2074
ag1625
ag1656
ag1928
ag1903
ag1688
ag1975
ag1980
ag1853
ag1383
ag888
ag462
ag788
ag803
ag939
ag589
ag110
ag463
ag1201
ag1030
ag1905
ag1341
ag730
ag1978
ag1971
ag1786
ag1861
ag1047
ag1035
ag2023
ag159
ag641
ag1425
ag774
ag211
ag393
ag405
ag299
ag514
ag1918
ag994
ag767
ag1291
ag2004
ag736
ag1428
ag233
ag1974
ag1016
ag1500
ag1531
ag1756
ag1350
ag1082
ag547
ag525
ag1813
ag1549
ag906
ag2120
ag1042
ag1977
ag1165
ag545
ag105
ag552
ag2044
ag932
ag2096
ag1411
ag1332
ag477
ag1721
ag897
ag810
ag367
ag511
ag651
ag1002
ag1303
ag437
ag318
ag510
ag583
ag2013
ag1620
ag1925
ag936
ag1010
ag95
ag271
ag1713
ag523
ag1264
ag1324
ag2076
ag1233
ag199
ag903
ag1297
ag677
ag1140
ag576
ag1322
ag32
ag171
ag134
ag569
ag1655
ag931
ag1532
ag717
ag1764
ag1676
ag630
ag790
ag2058
ag1644
ag1922
ag412
ag81
ag1512
ag1469
ag1599
ag488
ag1844
ag1301
ag592
ag1003
ag302
ag698
ag401
ag1429
ag1874
ag933
ag826
ag838
ag1112
ag1882
ag807
ag158
ag1736
ag526
ag1470
ag501
ag800
ag1879
ag454
ag2113
ag39
ag735
ag1059
ag989
ag1049
ag543
ag539
ag1898
ag1338
ag1153
ag863
ag1948
ag1779
ag469
ag949
ag1819
ag1892
ag776
ag91
ag2077
ag1052
ag956
ag1054
ag191
ag327
ag238
ag1947
ag291
ag645
ag25
ag228
ag379
ag1718
ag2019
ag542
ag1821
ag1288
ag943
ag785
ag319
ag1888
ag1365
ag512
ag70
ag131
ag1592
ag1776
ag1972
ag1435
ag170
ag1587
ag2116
ag1554
ag1062
ag727
ag1652
ag821
ag1950
ag1961
ag395
ag920
ag1835
ag1375
ag1580
ag1432
ag428
ag1541
ag1685
ag1370
ag2009
ag406
ag1832
ag1782
ag1055
ag112
ag1007
ag1659
ag2001
ag198
ag1104
ag1996
ag509
ag1720
ag279
ag217
ag1827
ag200
ag1705
ag653
ag1818
ag1714
ag92
ag1834
ag1480
ag1707
ag1320
ag801
ag693
ag687
ag1157
ag1767
ag1574
ag965
ag1860
ag2104
ag772
ag1220
ag2017
ag1091
ag100
ag1912
ag623
ag206
ag1436
ag1419
ag1330
ag2118
ag372
ag1926
ag1388
ag430
ag459
ag2087
ag1691
ag654
ag1460
ag1182
ag817
ag778
ag1243
ag1988
ag1719
ag74
ag2070
ag164
ag2105
ag937
ag967
ag530
ag839
ag2097
ag703
ag1265
ag176
ag1675
ag588
ag1079
ag382
ag617
ag1916
ag1939
ag1766
ag421
ag618
ag1262
ag296
ag792
ag1020
ag1343
ag239
ag1337
ag1000
ag1484
ag1417
aS'\xc2'
ag1329
ag2035
ag2086
ag1729
ag119
ag983
ag1689
ag1080
ag2051
ag2057
ag1345
ag487
ag1143
ag1211
ag1856
ag1290
ag851
ag787
ag1775
ag434
ag1473
ag2011
ag498
ag927
ag1816
ag37
ag749
ag1867
ag1490
ag829
ag1318
ag106
ag82
ag1515
ag2016
ag1576
ag1438
ag461
ag1253
ag1915
ag1901
ag544
ag667
ag1658
ag1684
ag1046
ag1850
ag1725
ag1594
ag964
ag1638
ag413
ag946
ag1920
ag335
ag1823
ag1224
ag168
ag513
ag853
ag1034
ag1347
ag869
ag226
ag1180
ag540
ag385
ag1506
ag802
ag149
ag287
ag1595
ag2034
ag345
ag657
ag741
ag834
ag558
ag1068
ag1276
ag1787
ag1752
ag700
ag1793
ag1982
ag1036
ag330
ag361
ag2053
ag782
ag1317
ag2064
ag1269
ag143
ag146
ag1064
ag27
ag1830
ag1360
ag409
ag1171
ag268
ag636
ag116
ag1103
ag66
ag737
aS't'
ag710
ag1993
ag1450
ag221
ag1846
ag850
ag1957
ag1820
ag1146
ag256
ag1131
ag1308
ag1099
ag885
ag822
ag174
ag1924
ag661
ag1434
ag1336
ag1465
ag1765
ag1448
ag229
ag600
ag139
ag917
ag1424
ag464
ag1213
ag1382
ag1087
ag923
ag1400
ag840
ag1804
ag1309
ag432
ag214
ag929
ag2018
ag1990
ag2083
ag1758
ag419
ag682
ag51
ag1074
ag609
ag1144
ag457
ag47
ag265
ag985
ag837
ag1029
ag2052
ag775
ag585
ag80
ag1078
ag136
ag1150
ag123
ag1005
ag63
ag533
ag1258
ag825
ag959
ag622
ag1278
ag1095
ag811
ag323
ag333
ag1543
ag553
ag649
ag856
ag1964
ag1057
ag251
ag197
ag1585
ag480
ag1992
ag1122
ag745
ag1942
ag1955
ag1378
ag713
ag705
ag2066
ag241
ag1210
ag114
ag1176
ag1609
ag598
ag1191
ag621
ag1763
ag535
ag193
ag352
ag290
ag492
ag925
ag1612
ag1458
ag902
ag1991
ag161
ag568
ag1374
ag1372
ag264
ag1564
ag1778
ag1066
ag1710
ag1101
ag1083
ag389
ag1194
ag1136
ag1244
ag1526
ag816
ag827
ag1566
ag422
ag843
ag2031
ag270
ag743
ag1281
ag575
ag1555
ag55
ag2100
ag2067
ag872
ag893
ag1100
ag269
ag990
ag1668
ag1760
ag1694
ag763
ag1728
ag1702
ag22
ag804
ag915
ag365
ag734
ag1259
ag1806
ag2080
ag1006
ag426
ag88
ag2088
ag1695
ag283
ag2092
ag467
ag538
ag896
ag1615
ag836
ag971
ag145
ag1553
ag2000
ag780
ag1981
ag35
ag478
ag1133
ag1951
ag54
ag1207
ag152
ag738
ag61
ag1302
ag1181
ag2012
ag1517
ag1572
ag1706
ag196
ag882
ag1746
ag2082
ag1913
ag1636
ag1642
ag442
ag924
ag441
ag266
ag686
ag1041
ag1421
ag207
ag998
ag627
ag30
ag1843
ag2041
ag1412
ag1533
ag154
ag1817
ag1050
ag502
ag253
ag715
ag1177
ag522
ag1829
ag1426
ag451
ag1650
ag1216
ag883
ag1637
ag1385
ag277
ag178
ag1936
ag306
ag438
ag301
ag556
ag1154
ag673
ag169
ag890
ag1392
ag1031
ag2014
ag218
ag1117
ag1727
ag1261
ag2091
ag1745
ag1173
ag642
ag182
ag1447
ag1845
ag1231
ag303
ag2043
ag2050
ag1507
ag1849
ag1022
ag465
ag1218
ag2093
ag250
ag884
ag844
ag1505
ag2015
ag1286
ag493
ag1750
ag1540
ag768
ag476
ag1616
ag1662
ag1562
ag126
ag278
ag314
ag394
ag593
ag1094
ag1197
ag410
ag1487
ag849
ag1516
ag611
ag2084
ag2112
ag1591
ag2090
ag506
ag1703
ag1600
ag1831
ag79
ag999
ag340
ag33
ag455
ag471
ag215
ag78
ag1552
ag242
ag1493
ag475
ag1048
ag798
ag806
ag58
ag1877
ag1391
ag272
ag1799
ag873
ag351
ag1545
ag518
ag1891
ag573
ag175
ag728
ag1485
ag28
ag2062
ag712
ag1499
ag765
ag1097
ag940
ag1206
ag137
ag1584
ag235
ag59
ag1344
ag1859
ag1023
ag1356
ag546
ag1546
ag1904
ag1940
ag324
ag670
ag1933
ag938
ag1342
ag1630
ag820
ag2121
ag1119
ag1456
ag247
ag644
ag591
ag899
ag709
ag1349
ag2098
ag1270
ag581
ag1142
ag1227
ag2094
ag124
ag968
ag1198
ag1114
ag1357
ag1219
ag29
ag660
ag1873
ag1361
ag541
ag2108
ag1038
ag1548
ag1734
ag1274
ag444
ag1556
ag616
ag795
ag89
ag2059
ag1263
ag1528
ag2005
ag1172
ag232
ag420
ag57
ag1472
ag913
ag190
ag681
ag1607
ag1897
ag1053
ag1660
ag1510
ag1692
ag1814
ag1740
ag860
ag1847
ag857
ag1613
ag571
ag62
ag1893
ag1670
ag1223
ag1578
ag648
ag1735
ag1299
ag1439
ag491
ag564
ag1126
ag854
ag572
ag524
ag1086
ag731
ag1408
ag483
ag831
ag1796
ag1463
ag366
ag1550
ag1522
ag666
ag1205
ag1280
ag403
ag499
ag650
ag1108
ag818
ag1156
ag334
ag1887
ag315
ag48
ag2046
ag1444
ag1848
ag205
ag1711
ag769
ag764
ag1963
ag350
ag567
ag150
ag766
ag1235
ag702
ag1851
ag1509
ag263
ag1868
ag313
ag1129
ag1890
ag1326
ag414
ag449
ag1116
ag1260
aS'W'
ag356
ag1292
ag115
aS'A'
ag1242
ag2010
ag756
ag706
ag647
ag1743
ag626
ag56
ag678
ag604
ag1376
ag1654
ag783
ag1287
ag1840
ag1451
ag996
ag192
ag1051
aS'4'
ag2068
ag184
ag1001
ag64
ag1815
ag1927
ag892
ag1120
ag273
ag1070
ag489
ag1403
ag755
ag1852
ag1402
ag357
ag928
ag770
ag1560
ag1731
ag1854
ag1872
ag725
ag201
ag1464
ag517
ag1275
ag1186
ag1311
ag1932
ag565
ag376
ag400
ag308
ag1788
aS'J'
ag1151
ag1340
ag1004
ag295
ag1389
ag1639
ag470
ag551
ag1384
ag1056
ag1226
ag1997
ag1551
ag153
ag2110
ag819
ag1739
ag94
ag797
ag605
ag1130
ag216
ag935
ag1063
ag1747
ag1228
ag758
ag1452
ag336
ag339
ag1251
ag1602
ag40
ag620
ag1013
ag665
ag761
ag1754
ag2111
ag1825
ag1328
ag18
ag918
ag1542
ag1614
ag1462
ag1433
ag180
ag155
ag1486
ag448
ag981
ag2109
ag865
ag249
ag1923
ag1733
ag1841
ag1404
ag683
ag962
ag944
ag799
ag1970
ag2021
ag1139
ag2024
ag1722
ag1780
ag1900
ag156
ag1124
ag482
ag808
ag1257
ag1593
ag484
ag1723
ag1232
ag1039
ag841
ag276
ag2025
ag1530
ag1152
ag332
ag431
ag1075
ag1628
ag307
ag2115
ag672
ag1476
ag1312
ag2101
ag886
ag1645
ag995
ag1060
ag282
ag322
ag1405
ag1247
ag516
ag1953
ag2079
ag1524
ag1267
ag966
ag643
ag1907
ag2008
ag528
ag49
ag1606
ag1836
ag1547
ag1669
ag625
ag894
ag2006
ag637
ag1096
ag848
ag1239
ag1072
ag1187
ag1498
ag960
ag1491
ag1504
ag1539
ag1305
ag1902
ag2020
ag1221
ag1353
ag1643
ag1306
ag1443
ag1294
ag1471
ag599
ag914
ag1175
ag791
ag1371
ag1603
ag1234
ag1717
ag1113
ag1037
ag1009
ag2069
ag504
ag833
ag1671
ag316
ag373
ag1771
ag696
ag1672
ag1277
ag1629
ag529
ag1663
ag1910
ag1230
ag1792
ag87
ag1155
ag1984
ag1604
ag396
ag1033
ag691
ag342
ag1998
ag1784
ag668
ag1441
ag2099
ag130
ag500
ag1919
ag1579
ag1525
ag982
ag1321
ag1111
ag231
ag378
ag2114
ag993
ag786
ag947
ag1184
ag2072
ag594
ag628
ag244
ag1826
ag331
ag1431
ag690
ag129
ag96
ag1943
ag662
ag1527
ag300
ag46
ag1482
ag1994
ag1217
ag1141
ag1394
ag2055
ag1693
ag210
ag908
ag1610
ag2033
ag42
ag548
ag1665
ag1698
ag948
ag103
ag1682
ag1627
ag1423
ag1519
ag1985
ag855
ag1282
ag1666
ag1858
ag460
ag1791
ag187
ag309
ag1107
ag189
ag1769
ag1193
ag1563
ag371
ag505
ag20
ag1418
ag183
ag874
ag1812
ag1559
ag75
ag868
ag1781
ag397
ag1536
ag652
ag842
ag321
ag1339
ag1929
ag1737
ag142
ag165
ag930
ag934
ag521
ag1255
ag2022
ag1067
ag2029
ag1225
ag2056
ag762
ag1741
ag1380
ag1601
ag468
ag579
ag1730
ag739
ag669
ag1712
ag2103
ag534
ag38
ag1724
ag760
ag162
ag1686
ag359
ag815
aS'P'
ag861
ag1954
ag1894
ag2071
ag601
ag275
ag1520
ag1289
ag1390
ag663
ag1115
ag1393
ag1632
ag879
ag603
ag578
ag1011
ag41
ag751
ag1573
ag986
ag1979
ag724
ag1058
ag1395
ag1651
ag1266
ag632
ag1481
ag1331
ag237
ag380
ag474
ag980
ag90
ag1021
ag1098
ag415
ag1061
ag1674
ag1254
ag261
ag260
ag1118
ag495
ag1160
ag364
ag992
ag2095
ag1802
ag1313
ag1503
ag381
ag219
ag708
ag445
ag659
ag614
ag950
ag1634
ag285
ag181
ag36
ag370
ag44
ag629
ag1783
ag656
ag1908
ag166
ag2054
ag1190
ag346
ag1449
ag225
ag1664
ag958
ag1959
ag1568
ag1422
ag1626
ag1109
ag1295
ag1732
ag520
ag128
ag1544
ag1468
ag1386
ag1028
ag796
ag133
ag881
ag1809
ag362
ag1162
ag72
ag172
ag1319
ag1535
ag742
ag140
ag969
ag904
ag98
ag1762
ag723
ag1026
ag1557
ag1310
ag1958
ag864
ag347
ag1597
ag1222
ag399
ag828
ag317
ag479
ag404
ag859
ag732
ag1511
ag680
ag289
ag416
ag1871
ag374
ag1956
ag1803
ag1164
ag481
ag570
ag157
ag1785
ag2106
ag957
ag676
ag447
ag754
ag875
ag254
ag1316
ag1726
ag704
ag69
ag148
ag1352
ag664
ag752
ag1537
ag607
ag1488
ag1968
ag1475
ag151
ag1245
ag1896
ag1598
ag1837
ag508
ag1121
ag1127
ag1501
ag832
ag1214
ag121
ag1914
ag1416
ag1237
ag1455
ag1680
ag1696
ag1496
ag1367
ag2117
ag1648
ag1166
ag905
ag67
ag1014
ag77
ag1497
ag388
ag369
ag1090
ag1941
ag1866
ag1427
ag117
ag613
ag1304
ag1495
ag1208
ag1085
ag1440
ag877
ag1742
ag1558
ag794
ag293
ag453
ag1396
ag1366
ag1623
ag1708
ag280
ag718
ag1333
ag1952
ag2048
ag945
ag1285
ag1307
ag76
ag1759
ag34
ag744
ag120
ag1605
ag1770
ag1024
ag574
ag1608
ag1624
ag208
ag391
ag1569
ag429
ag1043
ag2065
ag1212
ag179
ag360
ag1147
ag1618
ag602
ag977
ag1397
ag274
ag858
ag1949
ag1196
ag52
ag1283
ag329
ag688
ag204
ag1069
ag1071
ag466
ag1088
asbsS'max_document_length'
p2126
I100
sS'_tokenizer'
p2127
ctensorflow.contrib.learn.python.learn.preprocessing.text
tokenizer
p2128
sS'min_frequency'
p2129
I0
sb.